ARM GAS  /tmp/ccYrIPsY.s 			page 1


   1              		.cpu cortex-m4
   2              		.eabi_attribute 27, 1
   3              		.eabi_attribute 28, 1
   4              		.eabi_attribute 20, 1
   5              		.eabi_attribute 21, 1
   6              		.eabi_attribute 23, 3
   7              		.eabi_attribute 24, 1
   8              		.eabi_attribute 25, 1
   9              		.eabi_attribute 26, 1
  10              		.eabi_attribute 30, 1
  11              		.eabi_attribute 34, 1
  12              		.eabi_attribute 18, 4
  13              		.file	"cmsis_os.c"
  14              		.text
  15              	.Ltext0:
  16              		.cfi_sections	.debug_frame
  17              		.section	.text.makeFreeRtosPriority,"ax",%progbits
  18              		.align	1
  19              		.arch armv7e-m
  20              		.syntax unified
  21              		.thumb
  22              		.thumb_func
  23              		.fpu fpv4-sp-d16
  25              	makeFreeRtosPriority:
  26              	.LVL0:
  27              	.LFB107:
  28              		.file 1 "Middlewares/Third_Party/FreeRTOS/Source/CMSIS_RTOS/cmsis_os.c"
   1:Middlewares/Third_Party/FreeRTOS/Source/CMSIS_RTOS/cmsis_os.c **** /* ----------------------------------------------------------------------
   2:Middlewares/Third_Party/FreeRTOS/Source/CMSIS_RTOS/cmsis_os.c ****  * $Date:        5. February 2013
   3:Middlewares/Third_Party/FreeRTOS/Source/CMSIS_RTOS/cmsis_os.c ****  * $Revision:    V1.02
   4:Middlewares/Third_Party/FreeRTOS/Source/CMSIS_RTOS/cmsis_os.c ****  *
   5:Middlewares/Third_Party/FreeRTOS/Source/CMSIS_RTOS/cmsis_os.c ****  * Project:      CMSIS-RTOS API
   6:Middlewares/Third_Party/FreeRTOS/Source/CMSIS_RTOS/cmsis_os.c ****  * Title:        cmsis_os.c
   7:Middlewares/Third_Party/FreeRTOS/Source/CMSIS_RTOS/cmsis_os.c ****  *
   8:Middlewares/Third_Party/FreeRTOS/Source/CMSIS_RTOS/cmsis_os.c ****  * Version 0.02
   9:Middlewares/Third_Party/FreeRTOS/Source/CMSIS_RTOS/cmsis_os.c ****  *    Initial Proposal Phase
  10:Middlewares/Third_Party/FreeRTOS/Source/CMSIS_RTOS/cmsis_os.c ****  * Version 0.03
  11:Middlewares/Third_Party/FreeRTOS/Source/CMSIS_RTOS/cmsis_os.c ****  *    osKernelStart added, optional feature: main started as thread
  12:Middlewares/Third_Party/FreeRTOS/Source/CMSIS_RTOS/cmsis_os.c ****  *    osSemaphores have standard behavior
  13:Middlewares/Third_Party/FreeRTOS/Source/CMSIS_RTOS/cmsis_os.c ****  *    osTimerCreate does not start the timer, added osTimerStart
  14:Middlewares/Third_Party/FreeRTOS/Source/CMSIS_RTOS/cmsis_os.c ****  *    osThreadPass is renamed to osThreadYield
  15:Middlewares/Third_Party/FreeRTOS/Source/CMSIS_RTOS/cmsis_os.c ****  * Version 1.01
  16:Middlewares/Third_Party/FreeRTOS/Source/CMSIS_RTOS/cmsis_os.c ****  *    Support for C++ interface
  17:Middlewares/Third_Party/FreeRTOS/Source/CMSIS_RTOS/cmsis_os.c ****  *     - const attribute removed from the osXxxxDef_t typedef's
  18:Middlewares/Third_Party/FreeRTOS/Source/CMSIS_RTOS/cmsis_os.c ****  *     - const attribute added to the osXxxxDef macros
  19:Middlewares/Third_Party/FreeRTOS/Source/CMSIS_RTOS/cmsis_os.c ****  *    Added: osTimerDelete, osMutexDelete, osSemaphoreDelete
  20:Middlewares/Third_Party/FreeRTOS/Source/CMSIS_RTOS/cmsis_os.c ****  *    Added: osKernelInitialize
  21:Middlewares/Third_Party/FreeRTOS/Source/CMSIS_RTOS/cmsis_os.c ****  * Version 1.02
  22:Middlewares/Third_Party/FreeRTOS/Source/CMSIS_RTOS/cmsis_os.c ****  *    Control functions for short timeouts in microsecond resolution:
  23:Middlewares/Third_Party/FreeRTOS/Source/CMSIS_RTOS/cmsis_os.c ****  *    Added: osKernelSysTick, osKernelSysTickFrequency, osKernelSysTickMicroSec
  24:Middlewares/Third_Party/FreeRTOS/Source/CMSIS_RTOS/cmsis_os.c ****  *    Removed: osSignalGet 
  25:Middlewares/Third_Party/FreeRTOS/Source/CMSIS_RTOS/cmsis_os.c ****  *    
  26:Middlewares/Third_Party/FreeRTOS/Source/CMSIS_RTOS/cmsis_os.c ****  *  
  27:Middlewares/Third_Party/FreeRTOS/Source/CMSIS_RTOS/cmsis_os.c ****  *----------------------------------------------------------------------------
  28:Middlewares/Third_Party/FreeRTOS/Source/CMSIS_RTOS/cmsis_os.c ****  *
  29:Middlewares/Third_Party/FreeRTOS/Source/CMSIS_RTOS/cmsis_os.c ****  * Portions Copyright © 2016 STMicroelectronics International N.V. All rights reserved.
  30:Middlewares/Third_Party/FreeRTOS/Source/CMSIS_RTOS/cmsis_os.c ****  * Portions Copyright (c) 2013 ARM LIMITED
ARM GAS  /tmp/ccYrIPsY.s 			page 2


  31:Middlewares/Third_Party/FreeRTOS/Source/CMSIS_RTOS/cmsis_os.c ****  * All rights reserved.
  32:Middlewares/Third_Party/FreeRTOS/Source/CMSIS_RTOS/cmsis_os.c ****  * Redistribution and use in source and binary forms, with or without
  33:Middlewares/Third_Party/FreeRTOS/Source/CMSIS_RTOS/cmsis_os.c ****  * modification, are permitted provided that the following conditions are met:
  34:Middlewares/Third_Party/FreeRTOS/Source/CMSIS_RTOS/cmsis_os.c ****  *  - Redistributions of source code must retain the above copyright
  35:Middlewares/Third_Party/FreeRTOS/Source/CMSIS_RTOS/cmsis_os.c ****  *    notice, this list of conditions and the following disclaimer.
  36:Middlewares/Third_Party/FreeRTOS/Source/CMSIS_RTOS/cmsis_os.c ****  *  - Redistributions in binary form must reproduce the above copyright
  37:Middlewares/Third_Party/FreeRTOS/Source/CMSIS_RTOS/cmsis_os.c ****  *    notice, this list of conditions and the following disclaimer in the
  38:Middlewares/Third_Party/FreeRTOS/Source/CMSIS_RTOS/cmsis_os.c ****  *    documentation and/or other materials provided with the distribution.
  39:Middlewares/Third_Party/FreeRTOS/Source/CMSIS_RTOS/cmsis_os.c ****  *  - Neither the name of ARM  nor the names of its contributors may be used
  40:Middlewares/Third_Party/FreeRTOS/Source/CMSIS_RTOS/cmsis_os.c ****  *    to endorse or promote products derived from this software without
  41:Middlewares/Third_Party/FreeRTOS/Source/CMSIS_RTOS/cmsis_os.c ****  *    specific prior written permission.
  42:Middlewares/Third_Party/FreeRTOS/Source/CMSIS_RTOS/cmsis_os.c ****  *
  43:Middlewares/Third_Party/FreeRTOS/Source/CMSIS_RTOS/cmsis_os.c ****  * THIS SOFTWARE IS PROVIDED BY THE COPYRIGHT HOLDERS AND CONTRIBUTORS "AS IS"
  44:Middlewares/Third_Party/FreeRTOS/Source/CMSIS_RTOS/cmsis_os.c ****  * AND ANY EXPRESS OR IMPLIED WARRANTIES, INCLUDING, BUT NOT LIMITED TO, THE
  45:Middlewares/Third_Party/FreeRTOS/Source/CMSIS_RTOS/cmsis_os.c ****  * IMPLIED WARRANTIES OF MERCHANTABILITY AND FITNESS FOR A PARTICULAR PURPOSE
  46:Middlewares/Third_Party/FreeRTOS/Source/CMSIS_RTOS/cmsis_os.c ****  * ARE DISCLAIMED. IN NO EVENT SHALL COPYRIGHT HOLDERS AND CONTRIBUTORS BE
  47:Middlewares/Third_Party/FreeRTOS/Source/CMSIS_RTOS/cmsis_os.c ****  * LIABLE FOR ANY DIRECT, INDIRECT, INCIDENTAL, SPECIAL, EXEMPLARY, OR
  48:Middlewares/Third_Party/FreeRTOS/Source/CMSIS_RTOS/cmsis_os.c ****  * CONSEQUENTIAL DAMAGES (INCLUDING, BUT NOT LIMITED TO, PROCUREMENT OF
  49:Middlewares/Third_Party/FreeRTOS/Source/CMSIS_RTOS/cmsis_os.c ****  * SUBSTITUTE GOODS OR SERVICES; LOSS OF USE, DATA, OR PROFITS; OR BUSINESS
  50:Middlewares/Third_Party/FreeRTOS/Source/CMSIS_RTOS/cmsis_os.c ****  * INTERRUPTION) HOWEVER CAUSED AND ON ANY THEORY OF LIABILITY, WHETHER IN
  51:Middlewares/Third_Party/FreeRTOS/Source/CMSIS_RTOS/cmsis_os.c ****  * CONTRACT, STRICT LIABILITY, OR TORT (INCLUDING NEGLIGENCE OR OTHERWISE)
  52:Middlewares/Third_Party/FreeRTOS/Source/CMSIS_RTOS/cmsis_os.c ****  * ARISING IN ANY WAY OUT OF THE USE OF THIS SOFTWARE, EVEN IF ADVISED OF THE
  53:Middlewares/Third_Party/FreeRTOS/Source/CMSIS_RTOS/cmsis_os.c ****  * POSSIBILITY OF SUCH DAMAGE.
  54:Middlewares/Third_Party/FreeRTOS/Source/CMSIS_RTOS/cmsis_os.c ****  *---------------------------------------------------------------------------*/
  55:Middlewares/Third_Party/FreeRTOS/Source/CMSIS_RTOS/cmsis_os.c **** 
  56:Middlewares/Third_Party/FreeRTOS/Source/CMSIS_RTOS/cmsis_os.c **** #include <string.h>
  57:Middlewares/Third_Party/FreeRTOS/Source/CMSIS_RTOS/cmsis_os.c **** #include "cmsis_os.h"
  58:Middlewares/Third_Party/FreeRTOS/Source/CMSIS_RTOS/cmsis_os.c **** 
  59:Middlewares/Third_Party/FreeRTOS/Source/CMSIS_RTOS/cmsis_os.c **** /*
  60:Middlewares/Third_Party/FreeRTOS/Source/CMSIS_RTOS/cmsis_os.c ****  * ARM Compiler 4/5
  61:Middlewares/Third_Party/FreeRTOS/Source/CMSIS_RTOS/cmsis_os.c ****  */
  62:Middlewares/Third_Party/FreeRTOS/Source/CMSIS_RTOS/cmsis_os.c **** #if   defined ( __CC_ARM )
  63:Middlewares/Third_Party/FreeRTOS/Source/CMSIS_RTOS/cmsis_os.c **** 
  64:Middlewares/Third_Party/FreeRTOS/Source/CMSIS_RTOS/cmsis_os.c ****   #define __ASM            __asm                                      
  65:Middlewares/Third_Party/FreeRTOS/Source/CMSIS_RTOS/cmsis_os.c ****   #define __INLINE         __inline                                     
  66:Middlewares/Third_Party/FreeRTOS/Source/CMSIS_RTOS/cmsis_os.c ****   #define __STATIC_INLINE  static __inline
  67:Middlewares/Third_Party/FreeRTOS/Source/CMSIS_RTOS/cmsis_os.c **** 
  68:Middlewares/Third_Party/FreeRTOS/Source/CMSIS_RTOS/cmsis_os.c ****   #include "cmsis_armcc.h"
  69:Middlewares/Third_Party/FreeRTOS/Source/CMSIS_RTOS/cmsis_os.c **** 
  70:Middlewares/Third_Party/FreeRTOS/Source/CMSIS_RTOS/cmsis_os.c **** /*
  71:Middlewares/Third_Party/FreeRTOS/Source/CMSIS_RTOS/cmsis_os.c ****  * GNU Compiler
  72:Middlewares/Third_Party/FreeRTOS/Source/CMSIS_RTOS/cmsis_os.c ****  */
  73:Middlewares/Third_Party/FreeRTOS/Source/CMSIS_RTOS/cmsis_os.c **** #elif defined ( __GNUC__ )
  74:Middlewares/Third_Party/FreeRTOS/Source/CMSIS_RTOS/cmsis_os.c **** 
  75:Middlewares/Third_Party/FreeRTOS/Source/CMSIS_RTOS/cmsis_os.c ****   #define __ASM            __asm                                      /*!< asm keyword for GNU Comp
  76:Middlewares/Third_Party/FreeRTOS/Source/CMSIS_RTOS/cmsis_os.c ****   #define __INLINE         inline                                     /*!< inline keyword for GNU C
  77:Middlewares/Third_Party/FreeRTOS/Source/CMSIS_RTOS/cmsis_os.c ****   #define __STATIC_INLINE  static inline
  78:Middlewares/Third_Party/FreeRTOS/Source/CMSIS_RTOS/cmsis_os.c **** 
  79:Middlewares/Third_Party/FreeRTOS/Source/CMSIS_RTOS/cmsis_os.c ****   #include "cmsis_gcc.h"
  80:Middlewares/Third_Party/FreeRTOS/Source/CMSIS_RTOS/cmsis_os.c **** 
  81:Middlewares/Third_Party/FreeRTOS/Source/CMSIS_RTOS/cmsis_os.c **** 
  82:Middlewares/Third_Party/FreeRTOS/Source/CMSIS_RTOS/cmsis_os.c **** /*
  83:Middlewares/Third_Party/FreeRTOS/Source/CMSIS_RTOS/cmsis_os.c ****  * IAR Compiler
  84:Middlewares/Third_Party/FreeRTOS/Source/CMSIS_RTOS/cmsis_os.c ****  */
  85:Middlewares/Third_Party/FreeRTOS/Source/CMSIS_RTOS/cmsis_os.c **** #elif defined ( __ICCARM__ )
  86:Middlewares/Third_Party/FreeRTOS/Source/CMSIS_RTOS/cmsis_os.c **** 
  87:Middlewares/Third_Party/FreeRTOS/Source/CMSIS_RTOS/cmsis_os.c ****   #ifndef   __ASM
ARM GAS  /tmp/ccYrIPsY.s 			page 3


  88:Middlewares/Third_Party/FreeRTOS/Source/CMSIS_RTOS/cmsis_os.c ****     #define __ASM                     __asm
  89:Middlewares/Third_Party/FreeRTOS/Source/CMSIS_RTOS/cmsis_os.c ****   #endif
  90:Middlewares/Third_Party/FreeRTOS/Source/CMSIS_RTOS/cmsis_os.c ****   #ifndef   __INLINE
  91:Middlewares/Third_Party/FreeRTOS/Source/CMSIS_RTOS/cmsis_os.c ****     #define __INLINE                  inline
  92:Middlewares/Third_Party/FreeRTOS/Source/CMSIS_RTOS/cmsis_os.c ****   #endif
  93:Middlewares/Third_Party/FreeRTOS/Source/CMSIS_RTOS/cmsis_os.c ****   #ifndef   __STATIC_INLINE
  94:Middlewares/Third_Party/FreeRTOS/Source/CMSIS_RTOS/cmsis_os.c ****     #define __STATIC_INLINE           static inline
  95:Middlewares/Third_Party/FreeRTOS/Source/CMSIS_RTOS/cmsis_os.c ****   #endif
  96:Middlewares/Third_Party/FreeRTOS/Source/CMSIS_RTOS/cmsis_os.c **** 
  97:Middlewares/Third_Party/FreeRTOS/Source/CMSIS_RTOS/cmsis_os.c ****   #include <cmsis_iar.h>
  98:Middlewares/Third_Party/FreeRTOS/Source/CMSIS_RTOS/cmsis_os.c **** #endif
  99:Middlewares/Third_Party/FreeRTOS/Source/CMSIS_RTOS/cmsis_os.c **** 
 100:Middlewares/Third_Party/FreeRTOS/Source/CMSIS_RTOS/cmsis_os.c **** extern void xPortSysTickHandler(void);
 101:Middlewares/Third_Party/FreeRTOS/Source/CMSIS_RTOS/cmsis_os.c **** 
 102:Middlewares/Third_Party/FreeRTOS/Source/CMSIS_RTOS/cmsis_os.c **** /* Convert from CMSIS type osPriority to FreeRTOS priority number */
 103:Middlewares/Third_Party/FreeRTOS/Source/CMSIS_RTOS/cmsis_os.c **** static unsigned portBASE_TYPE makeFreeRtosPriority (osPriority priority)
 104:Middlewares/Third_Party/FreeRTOS/Source/CMSIS_RTOS/cmsis_os.c **** {
  29              		.loc 1 104 1 view -0
  30              		.cfi_startproc
  31              		@ args = 0, pretend = 0, frame = 0
  32              		@ frame_needed = 0, uses_anonymous_args = 0
  33              		@ link register save eliminated.
 105:Middlewares/Third_Party/FreeRTOS/Source/CMSIS_RTOS/cmsis_os.c ****   unsigned portBASE_TYPE fpriority = tskIDLE_PRIORITY;
  34              		.loc 1 105 3 view .LVU1
 106:Middlewares/Third_Party/FreeRTOS/Source/CMSIS_RTOS/cmsis_os.c ****   
 107:Middlewares/Third_Party/FreeRTOS/Source/CMSIS_RTOS/cmsis_os.c ****   if (priority != osPriorityError) {
  35              		.loc 1 107 3 view .LVU2
  36              		.loc 1 107 6 is_stmt 0 view .LVU3
  37 0000 8428     		cmp	r0, #132
  38 0002 01D0     		beq	.L3
 108:Middlewares/Third_Party/FreeRTOS/Source/CMSIS_RTOS/cmsis_os.c ****     fpriority += (priority - osPriorityIdle);
  39              		.loc 1 108 5 is_stmt 1 view .LVU4
  40              		.loc 1 108 15 is_stmt 0 view .LVU5
  41 0004 0330     		adds	r0, r0, #3
  42              	.LVL1:
  43              		.loc 1 108 15 view .LVU6
  44 0006 7047     		bx	lr
  45              	.LVL2:
  46              	.L3:
 105:Middlewares/Third_Party/FreeRTOS/Source/CMSIS_RTOS/cmsis_os.c ****   unsigned portBASE_TYPE fpriority = tskIDLE_PRIORITY;
  47              		.loc 1 105 26 view .LVU7
  48 0008 0020     		movs	r0, #0
  49              	.LVL3:
 109:Middlewares/Third_Party/FreeRTOS/Source/CMSIS_RTOS/cmsis_os.c ****   }
 110:Middlewares/Third_Party/FreeRTOS/Source/CMSIS_RTOS/cmsis_os.c ****   
 111:Middlewares/Third_Party/FreeRTOS/Source/CMSIS_RTOS/cmsis_os.c ****   return fpriority;
  50              		.loc 1 111 3 is_stmt 1 view .LVU8
 112:Middlewares/Third_Party/FreeRTOS/Source/CMSIS_RTOS/cmsis_os.c **** }
  51              		.loc 1 112 1 is_stmt 0 view .LVU9
  52 000a 7047     		bx	lr
  53              		.cfi_endproc
  54              	.LFE107:
  56              		.section	.text.makeCmsisPriority,"ax",%progbits
  57              		.align	1
  58              		.syntax unified
  59              		.thumb
  60              		.thumb_func
ARM GAS  /tmp/ccYrIPsY.s 			page 4


  61              		.fpu fpv4-sp-d16
  63              	makeCmsisPriority:
  64              	.LVL4:
  65              	.LFB108:
 113:Middlewares/Third_Party/FreeRTOS/Source/CMSIS_RTOS/cmsis_os.c **** 
 114:Middlewares/Third_Party/FreeRTOS/Source/CMSIS_RTOS/cmsis_os.c **** #if (INCLUDE_uxTaskPriorityGet == 1)
 115:Middlewares/Third_Party/FreeRTOS/Source/CMSIS_RTOS/cmsis_os.c **** /* Convert from FreeRTOS priority number to CMSIS type osPriority */
 116:Middlewares/Third_Party/FreeRTOS/Source/CMSIS_RTOS/cmsis_os.c **** static osPriority makeCmsisPriority (unsigned portBASE_TYPE fpriority)
 117:Middlewares/Third_Party/FreeRTOS/Source/CMSIS_RTOS/cmsis_os.c **** {
  66              		.loc 1 117 1 is_stmt 1 view -0
  67              		.cfi_startproc
  68              		@ args = 0, pretend = 0, frame = 0
  69              		@ frame_needed = 0, uses_anonymous_args = 0
  70              		@ link register save eliminated.
 118:Middlewares/Third_Party/FreeRTOS/Source/CMSIS_RTOS/cmsis_os.c ****   osPriority priority = osPriorityError;
  71              		.loc 1 118 3 view .LVU11
 119:Middlewares/Third_Party/FreeRTOS/Source/CMSIS_RTOS/cmsis_os.c ****   
 120:Middlewares/Third_Party/FreeRTOS/Source/CMSIS_RTOS/cmsis_os.c ****   if ((fpriority - tskIDLE_PRIORITY) <= (osPriorityRealtime - osPriorityIdle)) {
  72              		.loc 1 120 3 view .LVU12
  73              		.loc 1 120 6 is_stmt 0 view .LVU13
  74 0000 0628     		cmp	r0, #6
  75 0002 02D8     		bhi	.L6
 121:Middlewares/Third_Party/FreeRTOS/Source/CMSIS_RTOS/cmsis_os.c ****     priority = (osPriority)((int)osPriorityIdle + (int)(fpriority - tskIDLE_PRIORITY));
  76              		.loc 1 121 5 is_stmt 1 view .LVU14
  77              		.loc 1 121 49 is_stmt 0 view .LVU15
  78 0004 0338     		subs	r0, r0, #3
  79              	.LVL5:
  80              		.loc 1 121 14 view .LVU16
  81 0006 00B2     		sxth	r0, r0
  82              	.LVL6:
  83              		.loc 1 121 14 view .LVU17
  84 0008 7047     		bx	lr
  85              	.LVL7:
  86              	.L6:
 118:Middlewares/Third_Party/FreeRTOS/Source/CMSIS_RTOS/cmsis_os.c ****   osPriority priority = osPriorityError;
  87              		.loc 1 118 14 view .LVU18
  88 000a 8420     		movs	r0, #132
  89              	.LVL8:
 122:Middlewares/Third_Party/FreeRTOS/Source/CMSIS_RTOS/cmsis_os.c ****   }
 123:Middlewares/Third_Party/FreeRTOS/Source/CMSIS_RTOS/cmsis_os.c ****   
 124:Middlewares/Third_Party/FreeRTOS/Source/CMSIS_RTOS/cmsis_os.c ****   return priority;
  90              		.loc 1 124 3 is_stmt 1 view .LVU19
 125:Middlewares/Third_Party/FreeRTOS/Source/CMSIS_RTOS/cmsis_os.c **** }
  91              		.loc 1 125 1 is_stmt 0 view .LVU20
  92 000c 7047     		bx	lr
  93              		.cfi_endproc
  94              	.LFE108:
  96              		.section	.text.inHandlerMode,"ax",%progbits
  97              		.align	1
  98              		.syntax unified
  99              		.thumb
 100              		.thumb_func
 101              		.fpu fpv4-sp-d16
 103              	inHandlerMode:
 104              	.LFB109:
 126:Middlewares/Third_Party/FreeRTOS/Source/CMSIS_RTOS/cmsis_os.c **** #endif
 127:Middlewares/Third_Party/FreeRTOS/Source/CMSIS_RTOS/cmsis_os.c **** 
ARM GAS  /tmp/ccYrIPsY.s 			page 5


 128:Middlewares/Third_Party/FreeRTOS/Source/CMSIS_RTOS/cmsis_os.c **** 
 129:Middlewares/Third_Party/FreeRTOS/Source/CMSIS_RTOS/cmsis_os.c **** /* Determine whether we are in thread mode or handler mode. */
 130:Middlewares/Third_Party/FreeRTOS/Source/CMSIS_RTOS/cmsis_os.c **** static int inHandlerMode (void)
 131:Middlewares/Third_Party/FreeRTOS/Source/CMSIS_RTOS/cmsis_os.c **** {
 105              		.loc 1 131 1 is_stmt 1 view -0
 106              		.cfi_startproc
 107              		@ args = 0, pretend = 0, frame = 0
 108              		@ frame_needed = 0, uses_anonymous_args = 0
 109              		@ link register save eliminated.
 132:Middlewares/Third_Party/FreeRTOS/Source/CMSIS_RTOS/cmsis_os.c ****   return __get_IPSR() != 0;
 110              		.loc 1 132 3 view .LVU22
 111              	.LBB8:
 112              	.LBI8:
 113              		.file 2 "Drivers/CMSIS/Include/cmsis_gcc.h"
   1:Drivers/CMSIS/Include/cmsis_gcc.h **** /**************************************************************************//**
   2:Drivers/CMSIS/Include/cmsis_gcc.h ****  * @file     cmsis_gcc.h
   3:Drivers/CMSIS/Include/cmsis_gcc.h ****  * @brief    CMSIS compiler GCC header file
   4:Drivers/CMSIS/Include/cmsis_gcc.h ****  * @version  V5.0.4
   5:Drivers/CMSIS/Include/cmsis_gcc.h ****  * @date     09. April 2018
   6:Drivers/CMSIS/Include/cmsis_gcc.h ****  ******************************************************************************/
   7:Drivers/CMSIS/Include/cmsis_gcc.h **** /*
   8:Drivers/CMSIS/Include/cmsis_gcc.h ****  * Copyright (c) 2009-2018 Arm Limited. All rights reserved.
   9:Drivers/CMSIS/Include/cmsis_gcc.h ****  *
  10:Drivers/CMSIS/Include/cmsis_gcc.h ****  * SPDX-License-Identifier: Apache-2.0
  11:Drivers/CMSIS/Include/cmsis_gcc.h ****  *
  12:Drivers/CMSIS/Include/cmsis_gcc.h ****  * Licensed under the Apache License, Version 2.0 (the License); you may
  13:Drivers/CMSIS/Include/cmsis_gcc.h ****  * not use this file except in compliance with the License.
  14:Drivers/CMSIS/Include/cmsis_gcc.h ****  * You may obtain a copy of the License at
  15:Drivers/CMSIS/Include/cmsis_gcc.h ****  *
  16:Drivers/CMSIS/Include/cmsis_gcc.h ****  * www.apache.org/licenses/LICENSE-2.0
  17:Drivers/CMSIS/Include/cmsis_gcc.h ****  *
  18:Drivers/CMSIS/Include/cmsis_gcc.h ****  * Unless required by applicable law or agreed to in writing, software
  19:Drivers/CMSIS/Include/cmsis_gcc.h ****  * distributed under the License is distributed on an AS IS BASIS, WITHOUT
  20:Drivers/CMSIS/Include/cmsis_gcc.h ****  * WARRANTIES OR CONDITIONS OF ANY KIND, either express or implied.
  21:Drivers/CMSIS/Include/cmsis_gcc.h ****  * See the License for the specific language governing permissions and
  22:Drivers/CMSIS/Include/cmsis_gcc.h ****  * limitations under the License.
  23:Drivers/CMSIS/Include/cmsis_gcc.h ****  */
  24:Drivers/CMSIS/Include/cmsis_gcc.h **** 
  25:Drivers/CMSIS/Include/cmsis_gcc.h **** #ifndef __CMSIS_GCC_H
  26:Drivers/CMSIS/Include/cmsis_gcc.h **** #define __CMSIS_GCC_H
  27:Drivers/CMSIS/Include/cmsis_gcc.h **** 
  28:Drivers/CMSIS/Include/cmsis_gcc.h **** /* ignore some GCC warnings */
  29:Drivers/CMSIS/Include/cmsis_gcc.h **** #pragma GCC diagnostic push
  30:Drivers/CMSIS/Include/cmsis_gcc.h **** #pragma GCC diagnostic ignored "-Wsign-conversion"
  31:Drivers/CMSIS/Include/cmsis_gcc.h **** #pragma GCC diagnostic ignored "-Wconversion"
  32:Drivers/CMSIS/Include/cmsis_gcc.h **** #pragma GCC diagnostic ignored "-Wunused-parameter"
  33:Drivers/CMSIS/Include/cmsis_gcc.h **** 
  34:Drivers/CMSIS/Include/cmsis_gcc.h **** /* Fallback for __has_builtin */
  35:Drivers/CMSIS/Include/cmsis_gcc.h **** #ifndef __has_builtin
  36:Drivers/CMSIS/Include/cmsis_gcc.h ****   #define __has_builtin(x) (0)
  37:Drivers/CMSIS/Include/cmsis_gcc.h **** #endif
  38:Drivers/CMSIS/Include/cmsis_gcc.h **** 
  39:Drivers/CMSIS/Include/cmsis_gcc.h **** /* CMSIS compiler specific defines */
  40:Drivers/CMSIS/Include/cmsis_gcc.h **** #ifndef   __ASM
  41:Drivers/CMSIS/Include/cmsis_gcc.h ****   #define __ASM                                  __asm
  42:Drivers/CMSIS/Include/cmsis_gcc.h **** #endif
  43:Drivers/CMSIS/Include/cmsis_gcc.h **** #ifndef   __INLINE
ARM GAS  /tmp/ccYrIPsY.s 			page 6


  44:Drivers/CMSIS/Include/cmsis_gcc.h ****   #define __INLINE                               inline
  45:Drivers/CMSIS/Include/cmsis_gcc.h **** #endif
  46:Drivers/CMSIS/Include/cmsis_gcc.h **** #ifndef   __STATIC_INLINE
  47:Drivers/CMSIS/Include/cmsis_gcc.h ****   #define __STATIC_INLINE                        static inline
  48:Drivers/CMSIS/Include/cmsis_gcc.h **** #endif
  49:Drivers/CMSIS/Include/cmsis_gcc.h **** #ifndef   __STATIC_FORCEINLINE                 
  50:Drivers/CMSIS/Include/cmsis_gcc.h ****   #define __STATIC_FORCEINLINE                   __attribute__((always_inline)) static inline
  51:Drivers/CMSIS/Include/cmsis_gcc.h **** #endif                                           
  52:Drivers/CMSIS/Include/cmsis_gcc.h **** #ifndef   __NO_RETURN
  53:Drivers/CMSIS/Include/cmsis_gcc.h ****   #define __NO_RETURN                            __attribute__((__noreturn__))
  54:Drivers/CMSIS/Include/cmsis_gcc.h **** #endif
  55:Drivers/CMSIS/Include/cmsis_gcc.h **** #ifndef   __USED
  56:Drivers/CMSIS/Include/cmsis_gcc.h ****   #define __USED                                 __attribute__((used))
  57:Drivers/CMSIS/Include/cmsis_gcc.h **** #endif
  58:Drivers/CMSIS/Include/cmsis_gcc.h **** #ifndef   __WEAK
  59:Drivers/CMSIS/Include/cmsis_gcc.h ****   #define __WEAK                                 __attribute__((weak))
  60:Drivers/CMSIS/Include/cmsis_gcc.h **** #endif
  61:Drivers/CMSIS/Include/cmsis_gcc.h **** #ifndef   __PACKED
  62:Drivers/CMSIS/Include/cmsis_gcc.h ****   #define __PACKED                               __attribute__((packed, aligned(1)))
  63:Drivers/CMSIS/Include/cmsis_gcc.h **** #endif
  64:Drivers/CMSIS/Include/cmsis_gcc.h **** #ifndef   __PACKED_STRUCT
  65:Drivers/CMSIS/Include/cmsis_gcc.h ****   #define __PACKED_STRUCT                        struct __attribute__((packed, aligned(1)))
  66:Drivers/CMSIS/Include/cmsis_gcc.h **** #endif
  67:Drivers/CMSIS/Include/cmsis_gcc.h **** #ifndef   __PACKED_UNION
  68:Drivers/CMSIS/Include/cmsis_gcc.h ****   #define __PACKED_UNION                         union __attribute__((packed, aligned(1)))
  69:Drivers/CMSIS/Include/cmsis_gcc.h **** #endif
  70:Drivers/CMSIS/Include/cmsis_gcc.h **** #ifndef   __UNALIGNED_UINT32        /* deprecated */
  71:Drivers/CMSIS/Include/cmsis_gcc.h ****   #pragma GCC diagnostic push
  72:Drivers/CMSIS/Include/cmsis_gcc.h ****   #pragma GCC diagnostic ignored "-Wpacked"
  73:Drivers/CMSIS/Include/cmsis_gcc.h ****   #pragma GCC diagnostic ignored "-Wattributes"
  74:Drivers/CMSIS/Include/cmsis_gcc.h ****   struct __attribute__((packed)) T_UINT32 { uint32_t v; };
  75:Drivers/CMSIS/Include/cmsis_gcc.h ****   #pragma GCC diagnostic pop
  76:Drivers/CMSIS/Include/cmsis_gcc.h ****   #define __UNALIGNED_UINT32(x)                  (((struct T_UINT32 *)(x))->v)
  77:Drivers/CMSIS/Include/cmsis_gcc.h **** #endif
  78:Drivers/CMSIS/Include/cmsis_gcc.h **** #ifndef   __UNALIGNED_UINT16_WRITE
  79:Drivers/CMSIS/Include/cmsis_gcc.h ****   #pragma GCC diagnostic push
  80:Drivers/CMSIS/Include/cmsis_gcc.h ****   #pragma GCC diagnostic ignored "-Wpacked"
  81:Drivers/CMSIS/Include/cmsis_gcc.h ****   #pragma GCC diagnostic ignored "-Wattributes"
  82:Drivers/CMSIS/Include/cmsis_gcc.h ****   __PACKED_STRUCT T_UINT16_WRITE { uint16_t v; };
  83:Drivers/CMSIS/Include/cmsis_gcc.h ****   #pragma GCC diagnostic pop
  84:Drivers/CMSIS/Include/cmsis_gcc.h ****   #define __UNALIGNED_UINT16_WRITE(addr, val)    (void)((((struct T_UINT16_WRITE *)(void *)(addr))-
  85:Drivers/CMSIS/Include/cmsis_gcc.h **** #endif
  86:Drivers/CMSIS/Include/cmsis_gcc.h **** #ifndef   __UNALIGNED_UINT16_READ
  87:Drivers/CMSIS/Include/cmsis_gcc.h ****   #pragma GCC diagnostic push
  88:Drivers/CMSIS/Include/cmsis_gcc.h ****   #pragma GCC diagnostic ignored "-Wpacked"
  89:Drivers/CMSIS/Include/cmsis_gcc.h ****   #pragma GCC diagnostic ignored "-Wattributes"
  90:Drivers/CMSIS/Include/cmsis_gcc.h ****   __PACKED_STRUCT T_UINT16_READ { uint16_t v; };
  91:Drivers/CMSIS/Include/cmsis_gcc.h ****   #pragma GCC diagnostic pop
  92:Drivers/CMSIS/Include/cmsis_gcc.h ****   #define __UNALIGNED_UINT16_READ(addr)          (((const struct T_UINT16_READ *)(const void *)(add
  93:Drivers/CMSIS/Include/cmsis_gcc.h **** #endif
  94:Drivers/CMSIS/Include/cmsis_gcc.h **** #ifndef   __UNALIGNED_UINT32_WRITE
  95:Drivers/CMSIS/Include/cmsis_gcc.h ****   #pragma GCC diagnostic push
  96:Drivers/CMSIS/Include/cmsis_gcc.h ****   #pragma GCC diagnostic ignored "-Wpacked"
  97:Drivers/CMSIS/Include/cmsis_gcc.h ****   #pragma GCC diagnostic ignored "-Wattributes"
  98:Drivers/CMSIS/Include/cmsis_gcc.h ****   __PACKED_STRUCT T_UINT32_WRITE { uint32_t v; };
  99:Drivers/CMSIS/Include/cmsis_gcc.h ****   #pragma GCC diagnostic pop
 100:Drivers/CMSIS/Include/cmsis_gcc.h ****   #define __UNALIGNED_UINT32_WRITE(addr, val)    (void)((((struct T_UINT32_WRITE *)(void *)(addr))-
ARM GAS  /tmp/ccYrIPsY.s 			page 7


 101:Drivers/CMSIS/Include/cmsis_gcc.h **** #endif
 102:Drivers/CMSIS/Include/cmsis_gcc.h **** #ifndef   __UNALIGNED_UINT32_READ
 103:Drivers/CMSIS/Include/cmsis_gcc.h ****   #pragma GCC diagnostic push
 104:Drivers/CMSIS/Include/cmsis_gcc.h ****   #pragma GCC diagnostic ignored "-Wpacked"
 105:Drivers/CMSIS/Include/cmsis_gcc.h ****   #pragma GCC diagnostic ignored "-Wattributes"
 106:Drivers/CMSIS/Include/cmsis_gcc.h ****   __PACKED_STRUCT T_UINT32_READ { uint32_t v; };
 107:Drivers/CMSIS/Include/cmsis_gcc.h ****   #pragma GCC diagnostic pop
 108:Drivers/CMSIS/Include/cmsis_gcc.h ****   #define __UNALIGNED_UINT32_READ(addr)          (((const struct T_UINT32_READ *)(const void *)(add
 109:Drivers/CMSIS/Include/cmsis_gcc.h **** #endif
 110:Drivers/CMSIS/Include/cmsis_gcc.h **** #ifndef   __ALIGNED
 111:Drivers/CMSIS/Include/cmsis_gcc.h ****   #define __ALIGNED(x)                           __attribute__((aligned(x)))
 112:Drivers/CMSIS/Include/cmsis_gcc.h **** #endif
 113:Drivers/CMSIS/Include/cmsis_gcc.h **** #ifndef   __RESTRICT
 114:Drivers/CMSIS/Include/cmsis_gcc.h ****   #define __RESTRICT                             __restrict
 115:Drivers/CMSIS/Include/cmsis_gcc.h **** #endif
 116:Drivers/CMSIS/Include/cmsis_gcc.h **** 
 117:Drivers/CMSIS/Include/cmsis_gcc.h **** 
 118:Drivers/CMSIS/Include/cmsis_gcc.h **** /* ###########################  Core Function Access  ########################### */
 119:Drivers/CMSIS/Include/cmsis_gcc.h **** /** \ingroup  CMSIS_Core_FunctionInterface
 120:Drivers/CMSIS/Include/cmsis_gcc.h ****     \defgroup CMSIS_Core_RegAccFunctions CMSIS Core Register Access Functions
 121:Drivers/CMSIS/Include/cmsis_gcc.h ****   @{
 122:Drivers/CMSIS/Include/cmsis_gcc.h ****  */
 123:Drivers/CMSIS/Include/cmsis_gcc.h **** 
 124:Drivers/CMSIS/Include/cmsis_gcc.h **** /**
 125:Drivers/CMSIS/Include/cmsis_gcc.h ****   \brief   Enable IRQ Interrupts
 126:Drivers/CMSIS/Include/cmsis_gcc.h ****   \details Enables IRQ interrupts by clearing the I-bit in the CPSR.
 127:Drivers/CMSIS/Include/cmsis_gcc.h ****            Can only be executed in Privileged modes.
 128:Drivers/CMSIS/Include/cmsis_gcc.h ****  */
 129:Drivers/CMSIS/Include/cmsis_gcc.h **** __STATIC_FORCEINLINE void __enable_irq(void)
 130:Drivers/CMSIS/Include/cmsis_gcc.h **** {
 131:Drivers/CMSIS/Include/cmsis_gcc.h ****   __ASM volatile ("cpsie i" : : : "memory");
 132:Drivers/CMSIS/Include/cmsis_gcc.h **** }
 133:Drivers/CMSIS/Include/cmsis_gcc.h **** 
 134:Drivers/CMSIS/Include/cmsis_gcc.h **** 
 135:Drivers/CMSIS/Include/cmsis_gcc.h **** /**
 136:Drivers/CMSIS/Include/cmsis_gcc.h ****   \brief   Disable IRQ Interrupts
 137:Drivers/CMSIS/Include/cmsis_gcc.h ****   \details Disables IRQ interrupts by setting the I-bit in the CPSR.
 138:Drivers/CMSIS/Include/cmsis_gcc.h ****            Can only be executed in Privileged modes.
 139:Drivers/CMSIS/Include/cmsis_gcc.h ****  */
 140:Drivers/CMSIS/Include/cmsis_gcc.h **** __STATIC_FORCEINLINE void __disable_irq(void)
 141:Drivers/CMSIS/Include/cmsis_gcc.h **** {
 142:Drivers/CMSIS/Include/cmsis_gcc.h ****   __ASM volatile ("cpsid i" : : : "memory");
 143:Drivers/CMSIS/Include/cmsis_gcc.h **** }
 144:Drivers/CMSIS/Include/cmsis_gcc.h **** 
 145:Drivers/CMSIS/Include/cmsis_gcc.h **** 
 146:Drivers/CMSIS/Include/cmsis_gcc.h **** /**
 147:Drivers/CMSIS/Include/cmsis_gcc.h ****   \brief   Get Control Register
 148:Drivers/CMSIS/Include/cmsis_gcc.h ****   \details Returns the content of the Control Register.
 149:Drivers/CMSIS/Include/cmsis_gcc.h ****   \return               Control Register value
 150:Drivers/CMSIS/Include/cmsis_gcc.h ****  */
 151:Drivers/CMSIS/Include/cmsis_gcc.h **** __STATIC_FORCEINLINE uint32_t __get_CONTROL(void)
 152:Drivers/CMSIS/Include/cmsis_gcc.h **** {
 153:Drivers/CMSIS/Include/cmsis_gcc.h ****   uint32_t result;
 154:Drivers/CMSIS/Include/cmsis_gcc.h **** 
 155:Drivers/CMSIS/Include/cmsis_gcc.h ****   __ASM volatile ("MRS %0, control" : "=r" (result) );
 156:Drivers/CMSIS/Include/cmsis_gcc.h ****   return(result);
 157:Drivers/CMSIS/Include/cmsis_gcc.h **** }
ARM GAS  /tmp/ccYrIPsY.s 			page 8


 158:Drivers/CMSIS/Include/cmsis_gcc.h **** 
 159:Drivers/CMSIS/Include/cmsis_gcc.h **** 
 160:Drivers/CMSIS/Include/cmsis_gcc.h **** #if (defined (__ARM_FEATURE_CMSE ) && (__ARM_FEATURE_CMSE == 3))
 161:Drivers/CMSIS/Include/cmsis_gcc.h **** /**
 162:Drivers/CMSIS/Include/cmsis_gcc.h ****   \brief   Get Control Register (non-secure)
 163:Drivers/CMSIS/Include/cmsis_gcc.h ****   \details Returns the content of the non-secure Control Register when in secure mode.
 164:Drivers/CMSIS/Include/cmsis_gcc.h ****   \return               non-secure Control Register value
 165:Drivers/CMSIS/Include/cmsis_gcc.h ****  */
 166:Drivers/CMSIS/Include/cmsis_gcc.h **** __STATIC_FORCEINLINE uint32_t __TZ_get_CONTROL_NS(void)
 167:Drivers/CMSIS/Include/cmsis_gcc.h **** {
 168:Drivers/CMSIS/Include/cmsis_gcc.h ****   uint32_t result;
 169:Drivers/CMSIS/Include/cmsis_gcc.h **** 
 170:Drivers/CMSIS/Include/cmsis_gcc.h ****   __ASM volatile ("MRS %0, control_ns" : "=r" (result) );
 171:Drivers/CMSIS/Include/cmsis_gcc.h ****   return(result);
 172:Drivers/CMSIS/Include/cmsis_gcc.h **** }
 173:Drivers/CMSIS/Include/cmsis_gcc.h **** #endif
 174:Drivers/CMSIS/Include/cmsis_gcc.h **** 
 175:Drivers/CMSIS/Include/cmsis_gcc.h **** 
 176:Drivers/CMSIS/Include/cmsis_gcc.h **** /**
 177:Drivers/CMSIS/Include/cmsis_gcc.h ****   \brief   Set Control Register
 178:Drivers/CMSIS/Include/cmsis_gcc.h ****   \details Writes the given value to the Control Register.
 179:Drivers/CMSIS/Include/cmsis_gcc.h ****   \param [in]    control  Control Register value to set
 180:Drivers/CMSIS/Include/cmsis_gcc.h ****  */
 181:Drivers/CMSIS/Include/cmsis_gcc.h **** __STATIC_FORCEINLINE void __set_CONTROL(uint32_t control)
 182:Drivers/CMSIS/Include/cmsis_gcc.h **** {
 183:Drivers/CMSIS/Include/cmsis_gcc.h ****   __ASM volatile ("MSR control, %0" : : "r" (control) : "memory");
 184:Drivers/CMSIS/Include/cmsis_gcc.h **** }
 185:Drivers/CMSIS/Include/cmsis_gcc.h **** 
 186:Drivers/CMSIS/Include/cmsis_gcc.h **** 
 187:Drivers/CMSIS/Include/cmsis_gcc.h **** #if (defined (__ARM_FEATURE_CMSE ) && (__ARM_FEATURE_CMSE == 3))
 188:Drivers/CMSIS/Include/cmsis_gcc.h **** /**
 189:Drivers/CMSIS/Include/cmsis_gcc.h ****   \brief   Set Control Register (non-secure)
 190:Drivers/CMSIS/Include/cmsis_gcc.h ****   \details Writes the given value to the non-secure Control Register when in secure state.
 191:Drivers/CMSIS/Include/cmsis_gcc.h ****   \param [in]    control  Control Register value to set
 192:Drivers/CMSIS/Include/cmsis_gcc.h ****  */
 193:Drivers/CMSIS/Include/cmsis_gcc.h **** __STATIC_FORCEINLINE void __TZ_set_CONTROL_NS(uint32_t control)
 194:Drivers/CMSIS/Include/cmsis_gcc.h **** {
 195:Drivers/CMSIS/Include/cmsis_gcc.h ****   __ASM volatile ("MSR control_ns, %0" : : "r" (control) : "memory");
 196:Drivers/CMSIS/Include/cmsis_gcc.h **** }
 197:Drivers/CMSIS/Include/cmsis_gcc.h **** #endif
 198:Drivers/CMSIS/Include/cmsis_gcc.h **** 
 199:Drivers/CMSIS/Include/cmsis_gcc.h **** 
 200:Drivers/CMSIS/Include/cmsis_gcc.h **** /**
 201:Drivers/CMSIS/Include/cmsis_gcc.h ****   \brief   Get IPSR Register
 202:Drivers/CMSIS/Include/cmsis_gcc.h ****   \details Returns the content of the IPSR Register.
 203:Drivers/CMSIS/Include/cmsis_gcc.h ****   \return               IPSR Register value
 204:Drivers/CMSIS/Include/cmsis_gcc.h ****  */
 205:Drivers/CMSIS/Include/cmsis_gcc.h **** __STATIC_FORCEINLINE uint32_t __get_IPSR(void)
 114              		.loc 2 205 31 view .LVU23
 115              	.LBB9:
 206:Drivers/CMSIS/Include/cmsis_gcc.h **** {
 207:Drivers/CMSIS/Include/cmsis_gcc.h ****   uint32_t result;
 116              		.loc 2 207 3 view .LVU24
 208:Drivers/CMSIS/Include/cmsis_gcc.h **** 
 209:Drivers/CMSIS/Include/cmsis_gcc.h ****   __ASM volatile ("MRS %0, ipsr" : "=r" (result) );
 117              		.loc 2 209 3 view .LVU25
 118              		.syntax unified
ARM GAS  /tmp/ccYrIPsY.s 			page 9


 119              	@ 209 "Drivers/CMSIS/Include/cmsis_gcc.h" 1
 120 0000 EFF30580 		MRS r0, ipsr
 121              	@ 0 "" 2
 122              	.LVL9:
 210:Drivers/CMSIS/Include/cmsis_gcc.h ****   return(result);
 123              		.loc 2 210 3 view .LVU26
 124              		.loc 2 210 3 is_stmt 0 view .LVU27
 125              		.thumb
 126              		.syntax unified
 127              	.LBE9:
 128              	.LBE8:
 133:Middlewares/Third_Party/FreeRTOS/Source/CMSIS_RTOS/cmsis_os.c **** }
 129              		.loc 1 133 1 view .LVU28
 130 0004 0038     		subs	r0, r0, #0
 131 0006 18BF     		it	ne
 132 0008 0120     		movne	r0, #1
 133 000a 7047     		bx	lr
 134              		.cfi_endproc
 135              	.LFE109:
 137              		.section	.text.osKernelStart,"ax",%progbits
 138              		.align	1
 139              		.global	osKernelStart
 140              		.syntax unified
 141              		.thumb
 142              		.thumb_func
 143              		.fpu fpv4-sp-d16
 145              	osKernelStart:
 146              	.LFB110:
 134:Middlewares/Third_Party/FreeRTOS/Source/CMSIS_RTOS/cmsis_os.c **** 
 135:Middlewares/Third_Party/FreeRTOS/Source/CMSIS_RTOS/cmsis_os.c **** /*********************** Kernel Control Functions *****************************/
 136:Middlewares/Third_Party/FreeRTOS/Source/CMSIS_RTOS/cmsis_os.c **** /**
 137:Middlewares/Third_Party/FreeRTOS/Source/CMSIS_RTOS/cmsis_os.c **** * @brief  Initialize the RTOS Kernel for creating objects.
 138:Middlewares/Third_Party/FreeRTOS/Source/CMSIS_RTOS/cmsis_os.c **** * @retval status code that indicates the execution status of the function.
 139:Middlewares/Third_Party/FreeRTOS/Source/CMSIS_RTOS/cmsis_os.c **** * @note   MUST REMAIN UNCHANGED: \b osKernelInitialize shall be consistent in every CMSIS-RTOS.
 140:Middlewares/Third_Party/FreeRTOS/Source/CMSIS_RTOS/cmsis_os.c **** */
 141:Middlewares/Third_Party/FreeRTOS/Source/CMSIS_RTOS/cmsis_os.c **** osStatus osKernelInitialize (void);
 142:Middlewares/Third_Party/FreeRTOS/Source/CMSIS_RTOS/cmsis_os.c **** 
 143:Middlewares/Third_Party/FreeRTOS/Source/CMSIS_RTOS/cmsis_os.c **** /**
 144:Middlewares/Third_Party/FreeRTOS/Source/CMSIS_RTOS/cmsis_os.c **** * @brief  Start the RTOS Kernel with executing the specified thread.
 145:Middlewares/Third_Party/FreeRTOS/Source/CMSIS_RTOS/cmsis_os.c **** * @param  thread_def    thread definition referenced with \ref osThread.
 146:Middlewares/Third_Party/FreeRTOS/Source/CMSIS_RTOS/cmsis_os.c **** * @param  argument      pointer that is passed to the thread function as start argument.
 147:Middlewares/Third_Party/FreeRTOS/Source/CMSIS_RTOS/cmsis_os.c **** * @retval status code that indicates the execution status of the function
 148:Middlewares/Third_Party/FreeRTOS/Source/CMSIS_RTOS/cmsis_os.c **** * @note   MUST REMAIN UNCHANGED: \b osKernelStart shall be consistent in every CMSIS-RTOS.
 149:Middlewares/Third_Party/FreeRTOS/Source/CMSIS_RTOS/cmsis_os.c **** */
 150:Middlewares/Third_Party/FreeRTOS/Source/CMSIS_RTOS/cmsis_os.c **** osStatus osKernelStart (void)
 151:Middlewares/Third_Party/FreeRTOS/Source/CMSIS_RTOS/cmsis_os.c **** {
 147              		.loc 1 151 1 is_stmt 1 view -0
 148              		.cfi_startproc
 149              		@ args = 0, pretend = 0, frame = 0
 150              		@ frame_needed = 0, uses_anonymous_args = 0
 151 0000 08B5     		push	{r3, lr}
 152              	.LCFI0:
 153              		.cfi_def_cfa_offset 8
 154              		.cfi_offset 3, -8
 155              		.cfi_offset 14, -4
 152:Middlewares/Third_Party/FreeRTOS/Source/CMSIS_RTOS/cmsis_os.c ****   vTaskStartScheduler();
 156              		.loc 1 152 3 view .LVU30
ARM GAS  /tmp/ccYrIPsY.s 			page 10


 157 0002 FFF7FEFF 		bl	vTaskStartScheduler
 158              	.LVL10:
 153:Middlewares/Third_Party/FreeRTOS/Source/CMSIS_RTOS/cmsis_os.c ****   
 154:Middlewares/Third_Party/FreeRTOS/Source/CMSIS_RTOS/cmsis_os.c ****   return osOK;
 159              		.loc 1 154 3 view .LVU31
 155:Middlewares/Third_Party/FreeRTOS/Source/CMSIS_RTOS/cmsis_os.c **** }
 160              		.loc 1 155 1 is_stmt 0 view .LVU32
 161 0006 0020     		movs	r0, #0
 162 0008 08BD     		pop	{r3, pc}
 163              		.cfi_endproc
 164              	.LFE110:
 166              		.section	.text.osKernelRunning,"ax",%progbits
 167              		.align	1
 168              		.global	osKernelRunning
 169              		.syntax unified
 170              		.thumb
 171              		.thumb_func
 172              		.fpu fpv4-sp-d16
 174              	osKernelRunning:
 175              	.LFB111:
 156:Middlewares/Third_Party/FreeRTOS/Source/CMSIS_RTOS/cmsis_os.c **** 
 157:Middlewares/Third_Party/FreeRTOS/Source/CMSIS_RTOS/cmsis_os.c **** /**
 158:Middlewares/Third_Party/FreeRTOS/Source/CMSIS_RTOS/cmsis_os.c **** * @brief  Check if the RTOS kernel is already started
 159:Middlewares/Third_Party/FreeRTOS/Source/CMSIS_RTOS/cmsis_os.c **** * @param  None
 160:Middlewares/Third_Party/FreeRTOS/Source/CMSIS_RTOS/cmsis_os.c **** * @retval (0) RTOS is not started
 161:Middlewares/Third_Party/FreeRTOS/Source/CMSIS_RTOS/cmsis_os.c **** *         (1) RTOS is started
 162:Middlewares/Third_Party/FreeRTOS/Source/CMSIS_RTOS/cmsis_os.c **** *         (-1) if this feature is disabled in FreeRTOSConfig.h 
 163:Middlewares/Third_Party/FreeRTOS/Source/CMSIS_RTOS/cmsis_os.c **** * @note  MUST REMAIN UNCHANGED: \b osKernelRunning shall be consistent in every CMSIS-RTOS.
 164:Middlewares/Third_Party/FreeRTOS/Source/CMSIS_RTOS/cmsis_os.c **** */
 165:Middlewares/Third_Party/FreeRTOS/Source/CMSIS_RTOS/cmsis_os.c **** int32_t osKernelRunning(void)
 166:Middlewares/Third_Party/FreeRTOS/Source/CMSIS_RTOS/cmsis_os.c **** {
 176              		.loc 1 166 1 is_stmt 1 view -0
 177              		.cfi_startproc
 178              		@ args = 0, pretend = 0, frame = 0
 179              		@ frame_needed = 0, uses_anonymous_args = 0
 180 0000 08B5     		push	{r3, lr}
 181              	.LCFI1:
 182              		.cfi_def_cfa_offset 8
 183              		.cfi_offset 3, -8
 184              		.cfi_offset 14, -4
 167:Middlewares/Third_Party/FreeRTOS/Source/CMSIS_RTOS/cmsis_os.c **** #if ( ( INCLUDE_xTaskGetSchedulerState == 1 ) || ( configUSE_TIMERS == 1 ) )
 168:Middlewares/Third_Party/FreeRTOS/Source/CMSIS_RTOS/cmsis_os.c ****   if (xTaskGetSchedulerState() == taskSCHEDULER_NOT_STARTED)
 185              		.loc 1 168 3 view .LVU34
 186              		.loc 1 168 7 is_stmt 0 view .LVU35
 187 0002 FFF7FEFF 		bl	xTaskGetSchedulerState
 188              	.LVL11:
 189              		.loc 1 168 6 view .LVU36
 190 0006 0128     		cmp	r0, #1
 191 0008 01D0     		beq	.L14
 169:Middlewares/Third_Party/FreeRTOS/Source/CMSIS_RTOS/cmsis_os.c ****     return 0;
 170:Middlewares/Third_Party/FreeRTOS/Source/CMSIS_RTOS/cmsis_os.c ****   else
 171:Middlewares/Third_Party/FreeRTOS/Source/CMSIS_RTOS/cmsis_os.c ****     return 1;
 192              		.loc 1 171 12 view .LVU37
 193 000a 0120     		movs	r0, #1
 194              	.L10:
 172:Middlewares/Third_Party/FreeRTOS/Source/CMSIS_RTOS/cmsis_os.c **** #else
 173:Middlewares/Third_Party/FreeRTOS/Source/CMSIS_RTOS/cmsis_os.c **** 	return (-1);
ARM GAS  /tmp/ccYrIPsY.s 			page 11


 174:Middlewares/Third_Party/FreeRTOS/Source/CMSIS_RTOS/cmsis_os.c **** #endif	
 175:Middlewares/Third_Party/FreeRTOS/Source/CMSIS_RTOS/cmsis_os.c **** }
 195              		.loc 1 175 1 view .LVU38
 196 000c 08BD     		pop	{r3, pc}
 197              	.L14:
 169:Middlewares/Third_Party/FreeRTOS/Source/CMSIS_RTOS/cmsis_os.c ****     return 0;
 198              		.loc 1 169 12 view .LVU39
 199 000e 0020     		movs	r0, #0
 200 0010 FCE7     		b	.L10
 201              		.cfi_endproc
 202              	.LFE111:
 204              		.section	.text.osKernelSysTick,"ax",%progbits
 205              		.align	1
 206              		.global	osKernelSysTick
 207              		.syntax unified
 208              		.thumb
 209              		.thumb_func
 210              		.fpu fpv4-sp-d16
 212              	osKernelSysTick:
 213              	.LFB112:
 176:Middlewares/Third_Party/FreeRTOS/Source/CMSIS_RTOS/cmsis_os.c **** 
 177:Middlewares/Third_Party/FreeRTOS/Source/CMSIS_RTOS/cmsis_os.c **** #if (defined (osFeature_SysTick)  &&  (osFeature_SysTick != 0))     // System Timer available
 178:Middlewares/Third_Party/FreeRTOS/Source/CMSIS_RTOS/cmsis_os.c **** /**
 179:Middlewares/Third_Party/FreeRTOS/Source/CMSIS_RTOS/cmsis_os.c **** * @brief  Get the value of the Kernel SysTick timer
 180:Middlewares/Third_Party/FreeRTOS/Source/CMSIS_RTOS/cmsis_os.c **** * @param  None
 181:Middlewares/Third_Party/FreeRTOS/Source/CMSIS_RTOS/cmsis_os.c **** * @retval None
 182:Middlewares/Third_Party/FreeRTOS/Source/CMSIS_RTOS/cmsis_os.c **** * @note   MUST REMAIN UNCHANGED: \b osKernelSysTick shall be consistent in every CMSIS-RTOS.
 183:Middlewares/Third_Party/FreeRTOS/Source/CMSIS_RTOS/cmsis_os.c **** */
 184:Middlewares/Third_Party/FreeRTOS/Source/CMSIS_RTOS/cmsis_os.c **** uint32_t osKernelSysTick(void)
 185:Middlewares/Third_Party/FreeRTOS/Source/CMSIS_RTOS/cmsis_os.c **** {
 214              		.loc 1 185 1 is_stmt 1 view -0
 215              		.cfi_startproc
 216              		@ args = 0, pretend = 0, frame = 0
 217              		@ frame_needed = 0, uses_anonymous_args = 0
 218 0000 08B5     		push	{r3, lr}
 219              	.LCFI2:
 220              		.cfi_def_cfa_offset 8
 221              		.cfi_offset 3, -8
 222              		.cfi_offset 14, -4
 186:Middlewares/Third_Party/FreeRTOS/Source/CMSIS_RTOS/cmsis_os.c ****   if (inHandlerMode()) {
 223              		.loc 1 186 3 view .LVU41
 224              		.loc 1 186 7 is_stmt 0 view .LVU42
 225 0002 FFF7FEFF 		bl	inHandlerMode
 226              	.LVL12:
 227              		.loc 1 186 6 view .LVU43
 228 0006 10B1     		cbz	r0, .L16
 187:Middlewares/Third_Party/FreeRTOS/Source/CMSIS_RTOS/cmsis_os.c ****     return xTaskGetTickCountFromISR();
 229              		.loc 1 187 5 is_stmt 1 view .LVU44
 230              		.loc 1 187 12 is_stmt 0 view .LVU45
 231 0008 FFF7FEFF 		bl	xTaskGetTickCountFromISR
 232              	.LVL13:
 233              	.L15:
 188:Middlewares/Third_Party/FreeRTOS/Source/CMSIS_RTOS/cmsis_os.c ****   }
 189:Middlewares/Third_Party/FreeRTOS/Source/CMSIS_RTOS/cmsis_os.c ****   else {
 190:Middlewares/Third_Party/FreeRTOS/Source/CMSIS_RTOS/cmsis_os.c ****     return xTaskGetTickCount();
 191:Middlewares/Third_Party/FreeRTOS/Source/CMSIS_RTOS/cmsis_os.c ****   }
 192:Middlewares/Third_Party/FreeRTOS/Source/CMSIS_RTOS/cmsis_os.c **** }
ARM GAS  /tmp/ccYrIPsY.s 			page 12


 234              		.loc 1 192 1 view .LVU46
 235 000c 08BD     		pop	{r3, pc}
 236              	.L16:
 190:Middlewares/Third_Party/FreeRTOS/Source/CMSIS_RTOS/cmsis_os.c ****   }
 237              		.loc 1 190 5 is_stmt 1 view .LVU47
 190:Middlewares/Third_Party/FreeRTOS/Source/CMSIS_RTOS/cmsis_os.c ****   }
 238              		.loc 1 190 12 is_stmt 0 view .LVU48
 239 000e FFF7FEFF 		bl	xTaskGetTickCount
 240              	.LVL14:
 241 0012 FBE7     		b	.L15
 242              		.cfi_endproc
 243              	.LFE112:
 245              		.section	.text.osThreadCreate,"ax",%progbits
 246              		.align	1
 247              		.global	osThreadCreate
 248              		.syntax unified
 249              		.thumb
 250              		.thumb_func
 251              		.fpu fpv4-sp-d16
 253              	osThreadCreate:
 254              	.LVL15:
 255              	.LFB113:
 193:Middlewares/Third_Party/FreeRTOS/Source/CMSIS_RTOS/cmsis_os.c **** #endif    // System Timer available
 194:Middlewares/Third_Party/FreeRTOS/Source/CMSIS_RTOS/cmsis_os.c **** /*********************** Thread Management *****************************/
 195:Middlewares/Third_Party/FreeRTOS/Source/CMSIS_RTOS/cmsis_os.c **** /**
 196:Middlewares/Third_Party/FreeRTOS/Source/CMSIS_RTOS/cmsis_os.c **** * @brief  Create a thread and add it to Active Threads and set it to state READY.
 197:Middlewares/Third_Party/FreeRTOS/Source/CMSIS_RTOS/cmsis_os.c **** * @param  thread_def    thread definition referenced with \ref osThread.
 198:Middlewares/Third_Party/FreeRTOS/Source/CMSIS_RTOS/cmsis_os.c **** * @param  argument      pointer that is passed to the thread function as start argument.
 199:Middlewares/Third_Party/FreeRTOS/Source/CMSIS_RTOS/cmsis_os.c **** * @retval thread ID for reference by other functions or NULL in case of error.
 200:Middlewares/Third_Party/FreeRTOS/Source/CMSIS_RTOS/cmsis_os.c **** * @note   MUST REMAIN UNCHANGED: \b osThreadCreate shall be consistent in every CMSIS-RTOS.
 201:Middlewares/Third_Party/FreeRTOS/Source/CMSIS_RTOS/cmsis_os.c **** */
 202:Middlewares/Third_Party/FreeRTOS/Source/CMSIS_RTOS/cmsis_os.c **** osThreadId osThreadCreate (const osThreadDef_t *thread_def, void *argument)
 203:Middlewares/Third_Party/FreeRTOS/Source/CMSIS_RTOS/cmsis_os.c **** {
 256              		.loc 1 203 1 is_stmt 1 view -0
 257              		.cfi_startproc
 258              		@ args = 0, pretend = 0, frame = 8
 259              		@ frame_needed = 0, uses_anonymous_args = 0
 260              		.loc 1 203 1 is_stmt 0 view .LVU50
 261 0000 2DE9F043 		push	{r4, r5, r6, r7, r8, r9, lr}
 262              	.LCFI3:
 263              		.cfi_def_cfa_offset 28
 264              		.cfi_offset 4, -28
 265              		.cfi_offset 5, -24
 266              		.cfi_offset 6, -20
 267              		.cfi_offset 7, -16
 268              		.cfi_offset 8, -12
 269              		.cfi_offset 9, -8
 270              		.cfi_offset 14, -4
 271 0004 87B0     		sub	sp, sp, #28
 272              	.LCFI4:
 273              		.cfi_def_cfa_offset 56
 274 0006 0446     		mov	r4, r0
 275 0008 0F46     		mov	r7, r1
 204:Middlewares/Third_Party/FreeRTOS/Source/CMSIS_RTOS/cmsis_os.c ****   TaskHandle_t handle;
 276              		.loc 1 204 3 is_stmt 1 view .LVU51
 205:Middlewares/Third_Party/FreeRTOS/Source/CMSIS_RTOS/cmsis_os.c ****   
 206:Middlewares/Third_Party/FreeRTOS/Source/CMSIS_RTOS/cmsis_os.c **** #if( configSUPPORT_STATIC_ALLOCATION == 1 ) &&  ( configSUPPORT_DYNAMIC_ALLOCATION == 1 )
ARM GAS  /tmp/ccYrIPsY.s 			page 13


 207:Middlewares/Third_Party/FreeRTOS/Source/CMSIS_RTOS/cmsis_os.c ****   if((thread_def->buffer != NULL) && (thread_def->controlblock != NULL)) {
 277              		.loc 1 207 3 view .LVU52
 278              		.loc 1 207 17 is_stmt 0 view .LVU53
 279 000a 4569     		ldr	r5, [r0, #20]
 280              		.loc 1 207 5 view .LVU54
 281 000c BDB1     		cbz	r5, .L20
 282              		.loc 1 207 49 discriminator 1 view .LVU55
 283 000e 8669     		ldr	r6, [r0, #24]
 284              		.loc 1 207 35 discriminator 1 view .LVU56
 285 0010 AEB1     		cbz	r6, .L20
 208:Middlewares/Third_Party/FreeRTOS/Source/CMSIS_RTOS/cmsis_os.c ****     handle = xTaskCreateStatic((TaskFunction_t)thread_def->pthread,(const portCHAR *)thread_def->na
 286              		.loc 1 208 5 is_stmt 1 view .LVU57
 287              		.loc 1 208 58 is_stmt 0 view .LVU58
 288 0012 D0F80480 		ldr	r8, [r0, #4]
 289              		.loc 1 208 96 view .LVU59
 290 0016 D0F80090 		ldr	r9, [r0]
 291              		.loc 1 208 14 view .LVU60
 292 001a B0F90800 		ldrsh	r0, [r0, #8]
 293              	.LVL16:
 294              		.loc 1 208 14 view .LVU61
 295 001e FFF7FEFF 		bl	makeFreeRtosPriority
 296              	.LVL17:
 297              		.loc 1 208 14 view .LVU62
 298 0022 0296     		str	r6, [sp, #8]
 299 0024 0195     		str	r5, [sp, #4]
 300 0026 0090     		str	r0, [sp]
 301 0028 3B46     		mov	r3, r7
 302 002a 2269     		ldr	r2, [r4, #16]
 303 002c 4946     		mov	r1, r9
 304 002e 4046     		mov	r0, r8
 305 0030 FFF7FEFF 		bl	xTaskCreateStatic
 306              	.LVL18:
 307              		.loc 1 208 12 view .LVU63
 308 0034 0590     		str	r0, [sp, #20]
 309              	.L21:
 209:Middlewares/Third_Party/FreeRTOS/Source/CMSIS_RTOS/cmsis_os.c ****               thread_def->stacksize, argument, makeFreeRtosPriority(thread_def->tpriority),
 210:Middlewares/Third_Party/FreeRTOS/Source/CMSIS_RTOS/cmsis_os.c ****               thread_def->buffer, thread_def->controlblock);
 211:Middlewares/Third_Party/FreeRTOS/Source/CMSIS_RTOS/cmsis_os.c ****   }
 212:Middlewares/Third_Party/FreeRTOS/Source/CMSIS_RTOS/cmsis_os.c ****   else {
 213:Middlewares/Third_Party/FreeRTOS/Source/CMSIS_RTOS/cmsis_os.c ****     if (xTaskCreate((TaskFunction_t)thread_def->pthread,(const portCHAR *)thread_def->name,
 214:Middlewares/Third_Party/FreeRTOS/Source/CMSIS_RTOS/cmsis_os.c ****               thread_def->stacksize, argument, makeFreeRtosPriority(thread_def->tpriority),
 215:Middlewares/Third_Party/FreeRTOS/Source/CMSIS_RTOS/cmsis_os.c ****               &handle) != pdPASS)  {
 216:Middlewares/Third_Party/FreeRTOS/Source/CMSIS_RTOS/cmsis_os.c ****       return NULL;
 217:Middlewares/Third_Party/FreeRTOS/Source/CMSIS_RTOS/cmsis_os.c ****     } 
 218:Middlewares/Third_Party/FreeRTOS/Source/CMSIS_RTOS/cmsis_os.c ****   }
 219:Middlewares/Third_Party/FreeRTOS/Source/CMSIS_RTOS/cmsis_os.c **** #elif( configSUPPORT_STATIC_ALLOCATION == 1 )
 220:Middlewares/Third_Party/FreeRTOS/Source/CMSIS_RTOS/cmsis_os.c **** 
 221:Middlewares/Third_Party/FreeRTOS/Source/CMSIS_RTOS/cmsis_os.c ****     handle = xTaskCreateStatic((TaskFunction_t)thread_def->pthread,(const portCHAR *)thread_def->na
 222:Middlewares/Third_Party/FreeRTOS/Source/CMSIS_RTOS/cmsis_os.c ****               thread_def->stacksize, argument, makeFreeRtosPriority(thread_def->tpriority),
 223:Middlewares/Third_Party/FreeRTOS/Source/CMSIS_RTOS/cmsis_os.c ****               thread_def->buffer, thread_def->controlblock);
 224:Middlewares/Third_Party/FreeRTOS/Source/CMSIS_RTOS/cmsis_os.c **** #else
 225:Middlewares/Third_Party/FreeRTOS/Source/CMSIS_RTOS/cmsis_os.c ****   if (xTaskCreate((TaskFunction_t)thread_def->pthread,(const portCHAR *)thread_def->name,
 226:Middlewares/Third_Party/FreeRTOS/Source/CMSIS_RTOS/cmsis_os.c ****                    thread_def->stacksize, argument, makeFreeRtosPriority(thread_def->tpriority),
 227:Middlewares/Third_Party/FreeRTOS/Source/CMSIS_RTOS/cmsis_os.c ****                    &handle) != pdPASS)  {
 228:Middlewares/Third_Party/FreeRTOS/Source/CMSIS_RTOS/cmsis_os.c ****     return NULL;
 229:Middlewares/Third_Party/FreeRTOS/Source/CMSIS_RTOS/cmsis_os.c ****   }     
 230:Middlewares/Third_Party/FreeRTOS/Source/CMSIS_RTOS/cmsis_os.c **** #endif
ARM GAS  /tmp/ccYrIPsY.s 			page 14


 231:Middlewares/Third_Party/FreeRTOS/Source/CMSIS_RTOS/cmsis_os.c ****   
 232:Middlewares/Third_Party/FreeRTOS/Source/CMSIS_RTOS/cmsis_os.c ****   return handle;
 310              		.loc 1 232 3 is_stmt 1 view .LVU64
 311              		.loc 1 232 10 is_stmt 0 view .LVU65
 312 0036 0598     		ldr	r0, [sp, #20]
 313              	.L19:
 233:Middlewares/Third_Party/FreeRTOS/Source/CMSIS_RTOS/cmsis_os.c **** }
 314              		.loc 1 233 1 view .LVU66
 315 0038 07B0     		add	sp, sp, #28
 316              	.LCFI5:
 317              		.cfi_remember_state
 318              		.cfi_def_cfa_offset 28
 319              		@ sp needed
 320 003a BDE8F083 		pop	{r4, r5, r6, r7, r8, r9, pc}
 321              	.LVL19:
 322              	.L20:
 323              	.LCFI6:
 324              		.cfi_restore_state
 213:Middlewares/Third_Party/FreeRTOS/Source/CMSIS_RTOS/cmsis_os.c ****               thread_def->stacksize, argument, makeFreeRtosPriority(thread_def->tpriority),
 325              		.loc 1 213 5 is_stmt 1 view .LVU67
 213:Middlewares/Third_Party/FreeRTOS/Source/CMSIS_RTOS/cmsis_os.c ****               thread_def->stacksize, argument, makeFreeRtosPriority(thread_def->tpriority),
 326              		.loc 1 213 47 is_stmt 0 view .LVU68
 327 003e 6568     		ldr	r5, [r4, #4]
 213:Middlewares/Third_Party/FreeRTOS/Source/CMSIS_RTOS/cmsis_os.c ****               thread_def->stacksize, argument, makeFreeRtosPriority(thread_def->tpriority),
 328              		.loc 1 213 85 view .LVU69
 329 0040 2668     		ldr	r6, [r4]
 214:Middlewares/Third_Party/FreeRTOS/Source/CMSIS_RTOS/cmsis_os.c ****               &handle) != pdPASS)  {
 330              		.loc 1 214 25 view .LVU70
 331 0042 D4F81080 		ldr	r8, [r4, #16]
 213:Middlewares/Third_Party/FreeRTOS/Source/CMSIS_RTOS/cmsis_os.c ****               thread_def->stacksize, argument, makeFreeRtosPriority(thread_def->tpriority),
 332              		.loc 1 213 9 view .LVU71
 333 0046 B4F90800 		ldrsh	r0, [r4, #8]
 334              	.LVL20:
 213:Middlewares/Third_Party/FreeRTOS/Source/CMSIS_RTOS/cmsis_os.c ****               thread_def->stacksize, argument, makeFreeRtosPriority(thread_def->tpriority),
 335              		.loc 1 213 9 view .LVU72
 336 004a FFF7FEFF 		bl	makeFreeRtosPriority
 337              	.LVL21:
 213:Middlewares/Third_Party/FreeRTOS/Source/CMSIS_RTOS/cmsis_os.c ****               thread_def->stacksize, argument, makeFreeRtosPriority(thread_def->tpriority),
 338              		.loc 1 213 9 view .LVU73
 339 004e 05AB     		add	r3, sp, #20
 340 0050 0193     		str	r3, [sp, #4]
 341 0052 0090     		str	r0, [sp]
 342 0054 3B46     		mov	r3, r7
 343 0056 1FFA88F2 		uxth	r2, r8
 344 005a 3146     		mov	r1, r6
 345 005c 2846     		mov	r0, r5
 346 005e FFF7FEFF 		bl	xTaskCreate
 347              	.LVL22:
 213:Middlewares/Third_Party/FreeRTOS/Source/CMSIS_RTOS/cmsis_os.c ****               thread_def->stacksize, argument, makeFreeRtosPriority(thread_def->tpriority),
 348              		.loc 1 213 8 view .LVU74
 349 0062 0128     		cmp	r0, #1
 350 0064 E7D0     		beq	.L21
 216:Middlewares/Third_Party/FreeRTOS/Source/CMSIS_RTOS/cmsis_os.c ****     } 
 351              		.loc 1 216 14 view .LVU75
 352 0066 0020     		movs	r0, #0
 353 0068 E6E7     		b	.L19
 354              		.cfi_endproc
ARM GAS  /tmp/ccYrIPsY.s 			page 15


 355              	.LFE113:
 357              		.section	.text.osThreadGetId,"ax",%progbits
 358              		.align	1
 359              		.global	osThreadGetId
 360              		.syntax unified
 361              		.thumb
 362              		.thumb_func
 363              		.fpu fpv4-sp-d16
 365              	osThreadGetId:
 366              	.LFB114:
 234:Middlewares/Third_Party/FreeRTOS/Source/CMSIS_RTOS/cmsis_os.c **** 
 235:Middlewares/Third_Party/FreeRTOS/Source/CMSIS_RTOS/cmsis_os.c **** /**
 236:Middlewares/Third_Party/FreeRTOS/Source/CMSIS_RTOS/cmsis_os.c **** * @brief  Return the thread ID of the current running thread.
 237:Middlewares/Third_Party/FreeRTOS/Source/CMSIS_RTOS/cmsis_os.c **** * @retval thread ID for reference by other functions or NULL in case of error.
 238:Middlewares/Third_Party/FreeRTOS/Source/CMSIS_RTOS/cmsis_os.c **** * @note   MUST REMAIN UNCHANGED: \b osThreadGetId shall be consistent in every CMSIS-RTOS.
 239:Middlewares/Third_Party/FreeRTOS/Source/CMSIS_RTOS/cmsis_os.c **** */
 240:Middlewares/Third_Party/FreeRTOS/Source/CMSIS_RTOS/cmsis_os.c **** osThreadId osThreadGetId (void)
 241:Middlewares/Third_Party/FreeRTOS/Source/CMSIS_RTOS/cmsis_os.c **** {
 367              		.loc 1 241 1 is_stmt 1 view -0
 368              		.cfi_startproc
 369              		@ args = 0, pretend = 0, frame = 0
 370              		@ frame_needed = 0, uses_anonymous_args = 0
 371 0000 08B5     		push	{r3, lr}
 372              	.LCFI7:
 373              		.cfi_def_cfa_offset 8
 374              		.cfi_offset 3, -8
 375              		.cfi_offset 14, -4
 242:Middlewares/Third_Party/FreeRTOS/Source/CMSIS_RTOS/cmsis_os.c **** #if ( ( INCLUDE_xTaskGetCurrentTaskHandle == 1 ) || ( configUSE_MUTEXES == 1 ) )
 243:Middlewares/Third_Party/FreeRTOS/Source/CMSIS_RTOS/cmsis_os.c ****   return xTaskGetCurrentTaskHandle();
 376              		.loc 1 243 3 view .LVU77
 377              		.loc 1 243 10 is_stmt 0 view .LVU78
 378 0002 FFF7FEFF 		bl	xTaskGetCurrentTaskHandle
 379              	.LVL23:
 244:Middlewares/Third_Party/FreeRTOS/Source/CMSIS_RTOS/cmsis_os.c **** #else
 245:Middlewares/Third_Party/FreeRTOS/Source/CMSIS_RTOS/cmsis_os.c **** 	return NULL;
 246:Middlewares/Third_Party/FreeRTOS/Source/CMSIS_RTOS/cmsis_os.c **** #endif
 247:Middlewares/Third_Party/FreeRTOS/Source/CMSIS_RTOS/cmsis_os.c **** }
 380              		.loc 1 247 1 view .LVU79
 381 0006 08BD     		pop	{r3, pc}
 382              		.cfi_endproc
 383              	.LFE114:
 385              		.section	.text.osThreadTerminate,"ax",%progbits
 386              		.align	1
 387              		.global	osThreadTerminate
 388              		.syntax unified
 389              		.thumb
 390              		.thumb_func
 391              		.fpu fpv4-sp-d16
 393              	osThreadTerminate:
 394              	.LVL24:
 395              	.LFB115:
 248:Middlewares/Third_Party/FreeRTOS/Source/CMSIS_RTOS/cmsis_os.c **** 
 249:Middlewares/Third_Party/FreeRTOS/Source/CMSIS_RTOS/cmsis_os.c **** /**
 250:Middlewares/Third_Party/FreeRTOS/Source/CMSIS_RTOS/cmsis_os.c **** * @brief  Terminate execution of a thread and remove it from Active Threads.
 251:Middlewares/Third_Party/FreeRTOS/Source/CMSIS_RTOS/cmsis_os.c **** * @param   thread_id   thread ID obtained by \ref osThreadCreate or \ref osThreadGetId.
 252:Middlewares/Third_Party/FreeRTOS/Source/CMSIS_RTOS/cmsis_os.c **** * @retval  status code that indicates the execution status of the function.
 253:Middlewares/Third_Party/FreeRTOS/Source/CMSIS_RTOS/cmsis_os.c **** * @note   MUST REMAIN UNCHANGED: \b osThreadTerminate shall be consistent in every CMSIS-RTOS.
ARM GAS  /tmp/ccYrIPsY.s 			page 16


 254:Middlewares/Third_Party/FreeRTOS/Source/CMSIS_RTOS/cmsis_os.c **** */
 255:Middlewares/Third_Party/FreeRTOS/Source/CMSIS_RTOS/cmsis_os.c **** osStatus osThreadTerminate (osThreadId thread_id)
 256:Middlewares/Third_Party/FreeRTOS/Source/CMSIS_RTOS/cmsis_os.c **** {
 396              		.loc 1 256 1 is_stmt 1 view -0
 397              		.cfi_startproc
 398              		@ args = 0, pretend = 0, frame = 0
 399              		@ frame_needed = 0, uses_anonymous_args = 0
 400              		.loc 1 256 1 is_stmt 0 view .LVU81
 401 0000 08B5     		push	{r3, lr}
 402              	.LCFI8:
 403              		.cfi_def_cfa_offset 8
 404              		.cfi_offset 3, -8
 405              		.cfi_offset 14, -4
 257:Middlewares/Third_Party/FreeRTOS/Source/CMSIS_RTOS/cmsis_os.c **** #if (INCLUDE_vTaskDelete == 1)
 258:Middlewares/Third_Party/FreeRTOS/Source/CMSIS_RTOS/cmsis_os.c ****   vTaskDelete(thread_id);
 406              		.loc 1 258 3 is_stmt 1 view .LVU82
 407 0002 FFF7FEFF 		bl	vTaskDelete
 408              	.LVL25:
 259:Middlewares/Third_Party/FreeRTOS/Source/CMSIS_RTOS/cmsis_os.c ****   return osOK;
 409              		.loc 1 259 3 view .LVU83
 260:Middlewares/Third_Party/FreeRTOS/Source/CMSIS_RTOS/cmsis_os.c **** #else
 261:Middlewares/Third_Party/FreeRTOS/Source/CMSIS_RTOS/cmsis_os.c ****   return osErrorOS;
 262:Middlewares/Third_Party/FreeRTOS/Source/CMSIS_RTOS/cmsis_os.c **** #endif
 263:Middlewares/Third_Party/FreeRTOS/Source/CMSIS_RTOS/cmsis_os.c **** }
 410              		.loc 1 263 1 is_stmt 0 view .LVU84
 411 0006 0020     		movs	r0, #0
 412 0008 08BD     		pop	{r3, pc}
 413              		.cfi_endproc
 414              	.LFE115:
 416              		.section	.text.osThreadYield,"ax",%progbits
 417              		.align	1
 418              		.global	osThreadYield
 419              		.syntax unified
 420              		.thumb
 421              		.thumb_func
 422              		.fpu fpv4-sp-d16
 424              	osThreadYield:
 425              	.LFB116:
 264:Middlewares/Third_Party/FreeRTOS/Source/CMSIS_RTOS/cmsis_os.c **** 
 265:Middlewares/Third_Party/FreeRTOS/Source/CMSIS_RTOS/cmsis_os.c **** /**
 266:Middlewares/Third_Party/FreeRTOS/Source/CMSIS_RTOS/cmsis_os.c **** * @brief  Pass control to next thread that is in state \b READY.
 267:Middlewares/Third_Party/FreeRTOS/Source/CMSIS_RTOS/cmsis_os.c **** * @retval status code that indicates the execution status of the function.
 268:Middlewares/Third_Party/FreeRTOS/Source/CMSIS_RTOS/cmsis_os.c **** * @note   MUST REMAIN UNCHANGED: \b osThreadYield shall be consistent in every CMSIS-RTOS.
 269:Middlewares/Third_Party/FreeRTOS/Source/CMSIS_RTOS/cmsis_os.c **** */
 270:Middlewares/Third_Party/FreeRTOS/Source/CMSIS_RTOS/cmsis_os.c **** osStatus osThreadYield (void)
 271:Middlewares/Third_Party/FreeRTOS/Source/CMSIS_RTOS/cmsis_os.c **** {
 426              		.loc 1 271 1 is_stmt 1 view -0
 427              		.cfi_startproc
 428              		@ args = 0, pretend = 0, frame = 0
 429              		@ frame_needed = 0, uses_anonymous_args = 0
 430              		@ link register save eliminated.
 272:Middlewares/Third_Party/FreeRTOS/Source/CMSIS_RTOS/cmsis_os.c ****   taskYIELD();
 431              		.loc 1 272 3 view .LVU86
 432 0000 044B     		ldr	r3, .L30
 433 0002 4FF08052 		mov	r2, #268435456
 434 0006 1A60     		str	r2, [r3]
 435              		.loc 1 272 3 view .LVU87
ARM GAS  /tmp/ccYrIPsY.s 			page 17


 436              		.syntax unified
 437              	@ 272 "Middlewares/Third_Party/FreeRTOS/Source/CMSIS_RTOS/cmsis_os.c" 1
 438 0008 BFF34F8F 		dsb
 439              	@ 0 "" 2
 440              		.loc 1 272 3 view .LVU88
 441              	@ 272 "Middlewares/Third_Party/FreeRTOS/Source/CMSIS_RTOS/cmsis_os.c" 1
 442 000c BFF36F8F 		isb
 443              	@ 0 "" 2
 444              		.loc 1 272 14 view .LVU89
 273:Middlewares/Third_Party/FreeRTOS/Source/CMSIS_RTOS/cmsis_os.c ****   
 274:Middlewares/Third_Party/FreeRTOS/Source/CMSIS_RTOS/cmsis_os.c ****   return osOK;
 445              		.loc 1 274 3 view .LVU90
 275:Middlewares/Third_Party/FreeRTOS/Source/CMSIS_RTOS/cmsis_os.c **** }
 446              		.loc 1 275 1 is_stmt 0 view .LVU91
 447              		.thumb
 448              		.syntax unified
 449 0010 0020     		movs	r0, #0
 450 0012 7047     		bx	lr
 451              	.L31:
 452              		.align	2
 453              	.L30:
 454 0014 04ED00E0 		.word	-536810236
 455              		.cfi_endproc
 456              	.LFE116:
 458              		.section	.text.osThreadSetPriority,"ax",%progbits
 459              		.align	1
 460              		.global	osThreadSetPriority
 461              		.syntax unified
 462              		.thumb
 463              		.thumb_func
 464              		.fpu fpv4-sp-d16
 466              	osThreadSetPriority:
 467              	.LVL26:
 468              	.LFB117:
 276:Middlewares/Third_Party/FreeRTOS/Source/CMSIS_RTOS/cmsis_os.c **** 
 277:Middlewares/Third_Party/FreeRTOS/Source/CMSIS_RTOS/cmsis_os.c **** /**
 278:Middlewares/Third_Party/FreeRTOS/Source/CMSIS_RTOS/cmsis_os.c **** * @brief   Change priority of an active thread.
 279:Middlewares/Third_Party/FreeRTOS/Source/CMSIS_RTOS/cmsis_os.c **** * @param   thread_id     thread ID obtained by \ref osThreadCreate or \ref osThreadGetId.
 280:Middlewares/Third_Party/FreeRTOS/Source/CMSIS_RTOS/cmsis_os.c **** * @param   priority      new priority value for the thread function.
 281:Middlewares/Third_Party/FreeRTOS/Source/CMSIS_RTOS/cmsis_os.c **** * @retval  status code that indicates the execution status of the function.
 282:Middlewares/Third_Party/FreeRTOS/Source/CMSIS_RTOS/cmsis_os.c **** * @note   MUST REMAIN UNCHANGED: \b osThreadSetPriority shall be consistent in every CMSIS-RTOS.
 283:Middlewares/Third_Party/FreeRTOS/Source/CMSIS_RTOS/cmsis_os.c **** */
 284:Middlewares/Third_Party/FreeRTOS/Source/CMSIS_RTOS/cmsis_os.c **** osStatus osThreadSetPriority (osThreadId thread_id, osPriority priority)
 285:Middlewares/Third_Party/FreeRTOS/Source/CMSIS_RTOS/cmsis_os.c **** {
 469              		.loc 1 285 1 is_stmt 1 view -0
 470              		.cfi_startproc
 471              		@ args = 0, pretend = 0, frame = 0
 472              		@ frame_needed = 0, uses_anonymous_args = 0
 473              		.loc 1 285 1 is_stmt 0 view .LVU93
 474 0000 10B5     		push	{r4, lr}
 475              	.LCFI9:
 476              		.cfi_def_cfa_offset 8
 477              		.cfi_offset 4, -8
 478              		.cfi_offset 14, -4
 479 0002 0446     		mov	r4, r0
 286:Middlewares/Third_Party/FreeRTOS/Source/CMSIS_RTOS/cmsis_os.c **** #if (INCLUDE_vTaskPrioritySet == 1)
 287:Middlewares/Third_Party/FreeRTOS/Source/CMSIS_RTOS/cmsis_os.c ****   vTaskPrioritySet(thread_id, makeFreeRtosPriority(priority));
ARM GAS  /tmp/ccYrIPsY.s 			page 18


 480              		.loc 1 287 3 is_stmt 1 view .LVU94
 481 0004 0846     		mov	r0, r1
 482              	.LVL27:
 483              		.loc 1 287 3 is_stmt 0 view .LVU95
 484 0006 FFF7FEFF 		bl	makeFreeRtosPriority
 485              	.LVL28:
 486              		.loc 1 287 3 view .LVU96
 487 000a 0146     		mov	r1, r0
 488 000c 2046     		mov	r0, r4
 489 000e FFF7FEFF 		bl	vTaskPrioritySet
 490              	.LVL29:
 288:Middlewares/Third_Party/FreeRTOS/Source/CMSIS_RTOS/cmsis_os.c ****   return osOK;
 491              		.loc 1 288 3 is_stmt 1 view .LVU97
 289:Middlewares/Third_Party/FreeRTOS/Source/CMSIS_RTOS/cmsis_os.c **** #else
 290:Middlewares/Third_Party/FreeRTOS/Source/CMSIS_RTOS/cmsis_os.c ****   return osErrorOS;
 291:Middlewares/Third_Party/FreeRTOS/Source/CMSIS_RTOS/cmsis_os.c **** #endif
 292:Middlewares/Third_Party/FreeRTOS/Source/CMSIS_RTOS/cmsis_os.c **** }
 492              		.loc 1 292 1 is_stmt 0 view .LVU98
 493 0012 0020     		movs	r0, #0
 494 0014 10BD     		pop	{r4, pc}
 495              		.loc 1 292 1 view .LVU99
 496              		.cfi_endproc
 497              	.LFE117:
 499              		.section	.text.osThreadGetPriority,"ax",%progbits
 500              		.align	1
 501              		.global	osThreadGetPriority
 502              		.syntax unified
 503              		.thumb
 504              		.thumb_func
 505              		.fpu fpv4-sp-d16
 507              	osThreadGetPriority:
 508              	.LVL30:
 509              	.LFB118:
 293:Middlewares/Third_Party/FreeRTOS/Source/CMSIS_RTOS/cmsis_os.c **** 
 294:Middlewares/Third_Party/FreeRTOS/Source/CMSIS_RTOS/cmsis_os.c **** /**
 295:Middlewares/Third_Party/FreeRTOS/Source/CMSIS_RTOS/cmsis_os.c **** * @brief   Get current priority of an active thread.
 296:Middlewares/Third_Party/FreeRTOS/Source/CMSIS_RTOS/cmsis_os.c **** * @param   thread_id     thread ID obtained by \ref osThreadCreate or \ref osThreadGetId.
 297:Middlewares/Third_Party/FreeRTOS/Source/CMSIS_RTOS/cmsis_os.c **** * @retval  current priority value of the thread function.
 298:Middlewares/Third_Party/FreeRTOS/Source/CMSIS_RTOS/cmsis_os.c **** * @note   MUST REMAIN UNCHANGED: \b osThreadGetPriority shall be consistent in every CMSIS-RTOS.
 299:Middlewares/Third_Party/FreeRTOS/Source/CMSIS_RTOS/cmsis_os.c **** */
 300:Middlewares/Third_Party/FreeRTOS/Source/CMSIS_RTOS/cmsis_os.c **** osPriority osThreadGetPriority (osThreadId thread_id)
 301:Middlewares/Third_Party/FreeRTOS/Source/CMSIS_RTOS/cmsis_os.c **** {
 510              		.loc 1 301 1 is_stmt 1 view -0
 511              		.cfi_startproc
 512              		@ args = 0, pretend = 0, frame = 0
 513              		@ frame_needed = 0, uses_anonymous_args = 0
 514              		.loc 1 301 1 is_stmt 0 view .LVU101
 515 0000 10B5     		push	{r4, lr}
 516              	.LCFI10:
 517              		.cfi_def_cfa_offset 8
 518              		.cfi_offset 4, -8
 519              		.cfi_offset 14, -4
 520 0002 0446     		mov	r4, r0
 302:Middlewares/Third_Party/FreeRTOS/Source/CMSIS_RTOS/cmsis_os.c **** #if (INCLUDE_uxTaskPriorityGet == 1)
 303:Middlewares/Third_Party/FreeRTOS/Source/CMSIS_RTOS/cmsis_os.c ****   if (inHandlerMode())
 521              		.loc 1 303 3 is_stmt 1 view .LVU102
 522              		.loc 1 303 7 is_stmt 0 view .LVU103
ARM GAS  /tmp/ccYrIPsY.s 			page 19


 523 0004 FFF7FEFF 		bl	inHandlerMode
 524              	.LVL31:
 525              		.loc 1 303 6 view .LVU104
 526 0008 28B1     		cbz	r0, .L35
 304:Middlewares/Third_Party/FreeRTOS/Source/CMSIS_RTOS/cmsis_os.c ****   {
 305:Middlewares/Third_Party/FreeRTOS/Source/CMSIS_RTOS/cmsis_os.c ****     return makeCmsisPriority(uxTaskPriorityGetFromISR(thread_id));  
 527              		.loc 1 305 5 is_stmt 1 view .LVU105
 528              		.loc 1 305 12 is_stmt 0 view .LVU106
 529 000a 2046     		mov	r0, r4
 530 000c FFF7FEFF 		bl	uxTaskPriorityGetFromISR
 531              	.LVL32:
 532 0010 FFF7FEFF 		bl	makeCmsisPriority
 533              	.LVL33:
 534              	.L36:
 306:Middlewares/Third_Party/FreeRTOS/Source/CMSIS_RTOS/cmsis_os.c ****   }
 307:Middlewares/Third_Party/FreeRTOS/Source/CMSIS_RTOS/cmsis_os.c ****   else
 308:Middlewares/Third_Party/FreeRTOS/Source/CMSIS_RTOS/cmsis_os.c ****   {  
 309:Middlewares/Third_Party/FreeRTOS/Source/CMSIS_RTOS/cmsis_os.c ****     return makeCmsisPriority(uxTaskPriorityGet(thread_id));
 310:Middlewares/Third_Party/FreeRTOS/Source/CMSIS_RTOS/cmsis_os.c ****   }
 311:Middlewares/Third_Party/FreeRTOS/Source/CMSIS_RTOS/cmsis_os.c **** #else
 312:Middlewares/Third_Party/FreeRTOS/Source/CMSIS_RTOS/cmsis_os.c ****   return osPriorityError;
 313:Middlewares/Third_Party/FreeRTOS/Source/CMSIS_RTOS/cmsis_os.c **** #endif
 314:Middlewares/Third_Party/FreeRTOS/Source/CMSIS_RTOS/cmsis_os.c **** }
 535              		.loc 1 314 1 view .LVU107
 536 0014 10BD     		pop	{r4, pc}
 537              	.LVL34:
 538              	.L35:
 309:Middlewares/Third_Party/FreeRTOS/Source/CMSIS_RTOS/cmsis_os.c ****   }
 539              		.loc 1 309 5 is_stmt 1 view .LVU108
 309:Middlewares/Third_Party/FreeRTOS/Source/CMSIS_RTOS/cmsis_os.c ****   }
 540              		.loc 1 309 12 is_stmt 0 view .LVU109
 541 0016 2046     		mov	r0, r4
 542 0018 FFF7FEFF 		bl	uxTaskPriorityGet
 543              	.LVL35:
 544 001c FFF7FEFF 		bl	makeCmsisPriority
 545              	.LVL36:
 546 0020 F8E7     		b	.L36
 547              		.cfi_endproc
 548              	.LFE118:
 550              		.section	.text.osDelay,"ax",%progbits
 551              		.align	1
 552              		.global	osDelay
 553              		.syntax unified
 554              		.thumb
 555              		.thumb_func
 556              		.fpu fpv4-sp-d16
 558              	osDelay:
 559              	.LVL37:
 560              	.LFB119:
 315:Middlewares/Third_Party/FreeRTOS/Source/CMSIS_RTOS/cmsis_os.c **** 
 316:Middlewares/Third_Party/FreeRTOS/Source/CMSIS_RTOS/cmsis_os.c **** /*********************** Generic Wait Functions *******************************/
 317:Middlewares/Third_Party/FreeRTOS/Source/CMSIS_RTOS/cmsis_os.c **** /**
 318:Middlewares/Third_Party/FreeRTOS/Source/CMSIS_RTOS/cmsis_os.c **** * @brief   Wait for Timeout (Time Delay)
 319:Middlewares/Third_Party/FreeRTOS/Source/CMSIS_RTOS/cmsis_os.c **** * @param   millisec      time delay value
 320:Middlewares/Third_Party/FreeRTOS/Source/CMSIS_RTOS/cmsis_os.c **** * @retval  status code that indicates the execution status of the function.
 321:Middlewares/Third_Party/FreeRTOS/Source/CMSIS_RTOS/cmsis_os.c **** */
 322:Middlewares/Third_Party/FreeRTOS/Source/CMSIS_RTOS/cmsis_os.c **** osStatus osDelay (uint32_t millisec)
ARM GAS  /tmp/ccYrIPsY.s 			page 20


 323:Middlewares/Third_Party/FreeRTOS/Source/CMSIS_RTOS/cmsis_os.c **** {
 561              		.loc 1 323 1 is_stmt 1 view -0
 562              		.cfi_startproc
 563              		@ args = 0, pretend = 0, frame = 0
 564              		@ frame_needed = 0, uses_anonymous_args = 0
 565              		.loc 1 323 1 is_stmt 0 view .LVU111
 566 0000 08B5     		push	{r3, lr}
 567              	.LCFI11:
 568              		.cfi_def_cfa_offset 8
 569              		.cfi_offset 3, -8
 570              		.cfi_offset 14, -4
 571 0002 0246     		mov	r2, r0
 324:Middlewares/Third_Party/FreeRTOS/Source/CMSIS_RTOS/cmsis_os.c **** #if INCLUDE_vTaskDelay
 325:Middlewares/Third_Party/FreeRTOS/Source/CMSIS_RTOS/cmsis_os.c ****   TickType_t ticks = millisec / portTICK_PERIOD_MS;
 572              		.loc 1 325 3 is_stmt 1 view .LVU112
 573              		.loc 1 325 14 is_stmt 0 view .LVU113
 574 0004 054B     		ldr	r3, .L42
 575 0006 A3FB0013 		umull	r1, r3, r3, r0
 576 000a D808     		lsrs	r0, r3, #3
 577              	.LVL38:
 326:Middlewares/Third_Party/FreeRTOS/Source/CMSIS_RTOS/cmsis_os.c ****   
 327:Middlewares/Third_Party/FreeRTOS/Source/CMSIS_RTOS/cmsis_os.c ****   vTaskDelay(ticks ? ticks : 1);          /* Minimum delay = 1 tick */
 578              		.loc 1 327 3 is_stmt 1 view .LVU114
 579 000c 092A     		cmp	r2, #9
 580 000e 00D8     		bhi	.L39
 581 0010 0120     		movs	r0, #1
 582              	.LVL39:
 583              	.L39:
 584              		.loc 1 327 3 is_stmt 0 discriminator 4 view .LVU115
 585 0012 FFF7FEFF 		bl	vTaskDelay
 586              	.LVL40:
 328:Middlewares/Third_Party/FreeRTOS/Source/CMSIS_RTOS/cmsis_os.c ****   
 329:Middlewares/Third_Party/FreeRTOS/Source/CMSIS_RTOS/cmsis_os.c ****   return osOK;
 587              		.loc 1 329 3 is_stmt 1 discriminator 4 view .LVU116
 330:Middlewares/Third_Party/FreeRTOS/Source/CMSIS_RTOS/cmsis_os.c **** #else
 331:Middlewares/Third_Party/FreeRTOS/Source/CMSIS_RTOS/cmsis_os.c ****   (void) millisec;
 332:Middlewares/Third_Party/FreeRTOS/Source/CMSIS_RTOS/cmsis_os.c ****   
 333:Middlewares/Third_Party/FreeRTOS/Source/CMSIS_RTOS/cmsis_os.c ****   return osErrorResource;
 334:Middlewares/Third_Party/FreeRTOS/Source/CMSIS_RTOS/cmsis_os.c **** #endif
 335:Middlewares/Third_Party/FreeRTOS/Source/CMSIS_RTOS/cmsis_os.c **** }
 588              		.loc 1 335 1 is_stmt 0 discriminator 4 view .LVU117
 589 0016 0020     		movs	r0, #0
 590 0018 08BD     		pop	{r3, pc}
 591              	.L43:
 592 001a 00BF     		.align	2
 593              	.L42:
 594 001c CDCCCCCC 		.word	-858993459
 595              		.cfi_endproc
 596              	.LFE119:
 598              		.section	.text.osTimerCreate,"ax",%progbits
 599              		.align	1
 600              		.global	osTimerCreate
 601              		.syntax unified
 602              		.thumb
 603              		.thumb_func
 604              		.fpu fpv4-sp-d16
 606              	osTimerCreate:
ARM GAS  /tmp/ccYrIPsY.s 			page 21


 607              	.LVL41:
 608              	.LFB120:
 336:Middlewares/Third_Party/FreeRTOS/Source/CMSIS_RTOS/cmsis_os.c **** 
 337:Middlewares/Third_Party/FreeRTOS/Source/CMSIS_RTOS/cmsis_os.c **** #if (defined (osFeature_Wait)  &&  (osFeature_Wait != 0)) /* Generic Wait available */
 338:Middlewares/Third_Party/FreeRTOS/Source/CMSIS_RTOS/cmsis_os.c **** /**
 339:Middlewares/Third_Party/FreeRTOS/Source/CMSIS_RTOS/cmsis_os.c **** * @brief  Wait for Signal, Message, Mail, or Timeout
 340:Middlewares/Third_Party/FreeRTOS/Source/CMSIS_RTOS/cmsis_os.c **** * @param   millisec  timeout value or 0 in case of no time-out
 341:Middlewares/Third_Party/FreeRTOS/Source/CMSIS_RTOS/cmsis_os.c **** * @retval  event that contains signal, message, or mail information or error code.
 342:Middlewares/Third_Party/FreeRTOS/Source/CMSIS_RTOS/cmsis_os.c **** * @note   MUST REMAIN UNCHANGED: \b osWait shall be consistent in every CMSIS-RTOS.
 343:Middlewares/Third_Party/FreeRTOS/Source/CMSIS_RTOS/cmsis_os.c **** */
 344:Middlewares/Third_Party/FreeRTOS/Source/CMSIS_RTOS/cmsis_os.c **** osEvent osWait (uint32_t millisec);
 345:Middlewares/Third_Party/FreeRTOS/Source/CMSIS_RTOS/cmsis_os.c **** 
 346:Middlewares/Third_Party/FreeRTOS/Source/CMSIS_RTOS/cmsis_os.c **** #endif  /* Generic Wait available */
 347:Middlewares/Third_Party/FreeRTOS/Source/CMSIS_RTOS/cmsis_os.c **** 
 348:Middlewares/Third_Party/FreeRTOS/Source/CMSIS_RTOS/cmsis_os.c **** /***********************  Timer Management Functions ***************************/
 349:Middlewares/Third_Party/FreeRTOS/Source/CMSIS_RTOS/cmsis_os.c **** /**
 350:Middlewares/Third_Party/FreeRTOS/Source/CMSIS_RTOS/cmsis_os.c **** * @brief  Create a timer.
 351:Middlewares/Third_Party/FreeRTOS/Source/CMSIS_RTOS/cmsis_os.c **** * @param  timer_def     timer object referenced with \ref osTimer.
 352:Middlewares/Third_Party/FreeRTOS/Source/CMSIS_RTOS/cmsis_os.c **** * @param  type          osTimerOnce for one-shot or osTimerPeriodic for periodic behavior.
 353:Middlewares/Third_Party/FreeRTOS/Source/CMSIS_RTOS/cmsis_os.c **** * @param  argument      argument to the timer call back function.
 354:Middlewares/Third_Party/FreeRTOS/Source/CMSIS_RTOS/cmsis_os.c **** * @retval  timer ID for reference by other functions or NULL in case of error.
 355:Middlewares/Third_Party/FreeRTOS/Source/CMSIS_RTOS/cmsis_os.c **** * @note   MUST REMAIN UNCHANGED: \b osTimerCreate shall be consistent in every CMSIS-RTOS.
 356:Middlewares/Third_Party/FreeRTOS/Source/CMSIS_RTOS/cmsis_os.c **** */
 357:Middlewares/Third_Party/FreeRTOS/Source/CMSIS_RTOS/cmsis_os.c **** osTimerId osTimerCreate (const osTimerDef_t *timer_def, os_timer_type type, void *argument)
 358:Middlewares/Third_Party/FreeRTOS/Source/CMSIS_RTOS/cmsis_os.c **** {
 609              		.loc 1 358 1 is_stmt 1 view -0
 610              		.cfi_startproc
 611              		@ args = 0, pretend = 0, frame = 0
 612              		@ frame_needed = 0, uses_anonymous_args = 0
 613              		@ link register save eliminated.
 359:Middlewares/Third_Party/FreeRTOS/Source/CMSIS_RTOS/cmsis_os.c **** #if (configUSE_TIMERS == 1)
 360:Middlewares/Third_Party/FreeRTOS/Source/CMSIS_RTOS/cmsis_os.c **** 
 361:Middlewares/Third_Party/FreeRTOS/Source/CMSIS_RTOS/cmsis_os.c **** #if( ( configSUPPORT_STATIC_ALLOCATION == 1 ) && ( configSUPPORT_DYNAMIC_ALLOCATION == 1 ) ) 
 362:Middlewares/Third_Party/FreeRTOS/Source/CMSIS_RTOS/cmsis_os.c ****   if(timer_def->controlblock != NULL) {
 363:Middlewares/Third_Party/FreeRTOS/Source/CMSIS_RTOS/cmsis_os.c ****     return xTimerCreateStatic((const char *)"",
 364:Middlewares/Third_Party/FreeRTOS/Source/CMSIS_RTOS/cmsis_os.c ****                       1, // period should be filled when starting the Timer using osTimerStart
 365:Middlewares/Third_Party/FreeRTOS/Source/CMSIS_RTOS/cmsis_os.c ****                       (type == osTimerPeriodic) ? pdTRUE : pdFALSE,
 366:Middlewares/Third_Party/FreeRTOS/Source/CMSIS_RTOS/cmsis_os.c ****                       (void *) argument,
 367:Middlewares/Third_Party/FreeRTOS/Source/CMSIS_RTOS/cmsis_os.c ****                       (TimerCallbackFunction_t)timer_def->ptimer,
 368:Middlewares/Third_Party/FreeRTOS/Source/CMSIS_RTOS/cmsis_os.c ****                       (StaticTimer_t *)timer_def->controlblock);
 369:Middlewares/Third_Party/FreeRTOS/Source/CMSIS_RTOS/cmsis_os.c ****   }
 370:Middlewares/Third_Party/FreeRTOS/Source/CMSIS_RTOS/cmsis_os.c ****   else {
 371:Middlewares/Third_Party/FreeRTOS/Source/CMSIS_RTOS/cmsis_os.c ****     return xTimerCreate((const char *)"",
 372:Middlewares/Third_Party/FreeRTOS/Source/CMSIS_RTOS/cmsis_os.c ****                       1, // period should be filled when starting the Timer using osTimerStart
 373:Middlewares/Third_Party/FreeRTOS/Source/CMSIS_RTOS/cmsis_os.c ****                       (type == osTimerPeriodic) ? pdTRUE : pdFALSE,
 374:Middlewares/Third_Party/FreeRTOS/Source/CMSIS_RTOS/cmsis_os.c ****                       (void *) argument,
 375:Middlewares/Third_Party/FreeRTOS/Source/CMSIS_RTOS/cmsis_os.c ****                       (TimerCallbackFunction_t)timer_def->ptimer);
 376:Middlewares/Third_Party/FreeRTOS/Source/CMSIS_RTOS/cmsis_os.c ****  }
 377:Middlewares/Third_Party/FreeRTOS/Source/CMSIS_RTOS/cmsis_os.c **** #elif( configSUPPORT_STATIC_ALLOCATION == 1 )
 378:Middlewares/Third_Party/FreeRTOS/Source/CMSIS_RTOS/cmsis_os.c ****   return xTimerCreateStatic((const char *)"",
 379:Middlewares/Third_Party/FreeRTOS/Source/CMSIS_RTOS/cmsis_os.c ****                       1, // period should be filled when starting the Timer using osTimerStart
 380:Middlewares/Third_Party/FreeRTOS/Source/CMSIS_RTOS/cmsis_os.c ****                       (type == osTimerPeriodic) ? pdTRUE : pdFALSE,
 381:Middlewares/Third_Party/FreeRTOS/Source/CMSIS_RTOS/cmsis_os.c ****                       (void *) argument,
 382:Middlewares/Third_Party/FreeRTOS/Source/CMSIS_RTOS/cmsis_os.c ****                       (TimerCallbackFunction_t)timer_def->ptimer,
 383:Middlewares/Third_Party/FreeRTOS/Source/CMSIS_RTOS/cmsis_os.c ****                       (StaticTimer_t *)timer_def->controlblock);  
 384:Middlewares/Third_Party/FreeRTOS/Source/CMSIS_RTOS/cmsis_os.c **** #else
 385:Middlewares/Third_Party/FreeRTOS/Source/CMSIS_RTOS/cmsis_os.c ****   return xTimerCreate((const char *)"",
ARM GAS  /tmp/ccYrIPsY.s 			page 22


 386:Middlewares/Third_Party/FreeRTOS/Source/CMSIS_RTOS/cmsis_os.c ****                       1, // period should be filled when starting the Timer using osTimerStart
 387:Middlewares/Third_Party/FreeRTOS/Source/CMSIS_RTOS/cmsis_os.c ****                       (type == osTimerPeriodic) ? pdTRUE : pdFALSE,
 388:Middlewares/Third_Party/FreeRTOS/Source/CMSIS_RTOS/cmsis_os.c ****                       (void *) argument,
 389:Middlewares/Third_Party/FreeRTOS/Source/CMSIS_RTOS/cmsis_os.c ****                       (TimerCallbackFunction_t)timer_def->ptimer);
 390:Middlewares/Third_Party/FreeRTOS/Source/CMSIS_RTOS/cmsis_os.c **** #endif
 391:Middlewares/Third_Party/FreeRTOS/Source/CMSIS_RTOS/cmsis_os.c **** 
 392:Middlewares/Third_Party/FreeRTOS/Source/CMSIS_RTOS/cmsis_os.c **** #else 
 393:Middlewares/Third_Party/FreeRTOS/Source/CMSIS_RTOS/cmsis_os.c **** 	return NULL;
 614              		.loc 1 393 2 view .LVU119
 394:Middlewares/Third_Party/FreeRTOS/Source/CMSIS_RTOS/cmsis_os.c **** #endif
 395:Middlewares/Third_Party/FreeRTOS/Source/CMSIS_RTOS/cmsis_os.c **** }
 615              		.loc 1 395 1 is_stmt 0 view .LVU120
 616 0000 0020     		movs	r0, #0
 617              	.LVL42:
 618              		.loc 1 395 1 view .LVU121
 619 0002 7047     		bx	lr
 620              		.cfi_endproc
 621              	.LFE120:
 623              		.section	.text.osTimerStart,"ax",%progbits
 624              		.align	1
 625              		.global	osTimerStart
 626              		.syntax unified
 627              		.thumb
 628              		.thumb_func
 629              		.fpu fpv4-sp-d16
 631              	osTimerStart:
 632              	.LVL43:
 633              	.LFB121:
 396:Middlewares/Third_Party/FreeRTOS/Source/CMSIS_RTOS/cmsis_os.c **** 
 397:Middlewares/Third_Party/FreeRTOS/Source/CMSIS_RTOS/cmsis_os.c **** /**
 398:Middlewares/Third_Party/FreeRTOS/Source/CMSIS_RTOS/cmsis_os.c **** * @brief  Start or restart a timer.
 399:Middlewares/Third_Party/FreeRTOS/Source/CMSIS_RTOS/cmsis_os.c **** * @param  timer_id      timer ID obtained by \ref osTimerCreate.
 400:Middlewares/Third_Party/FreeRTOS/Source/CMSIS_RTOS/cmsis_os.c **** * @param  millisec      time delay value of the timer.
 401:Middlewares/Third_Party/FreeRTOS/Source/CMSIS_RTOS/cmsis_os.c **** * @retval  status code that indicates the execution status of the function
 402:Middlewares/Third_Party/FreeRTOS/Source/CMSIS_RTOS/cmsis_os.c **** * @note   MUST REMAIN UNCHANGED: \b osTimerStart shall be consistent in every CMSIS-RTOS.
 403:Middlewares/Third_Party/FreeRTOS/Source/CMSIS_RTOS/cmsis_os.c **** */
 404:Middlewares/Third_Party/FreeRTOS/Source/CMSIS_RTOS/cmsis_os.c **** osStatus osTimerStart (osTimerId timer_id, uint32_t millisec)
 405:Middlewares/Third_Party/FreeRTOS/Source/CMSIS_RTOS/cmsis_os.c **** {
 634              		.loc 1 405 1 is_stmt 1 view -0
 635              		.cfi_startproc
 636              		@ args = 0, pretend = 0, frame = 0
 637              		@ frame_needed = 0, uses_anonymous_args = 0
 638              		@ link register save eliminated.
 406:Middlewares/Third_Party/FreeRTOS/Source/CMSIS_RTOS/cmsis_os.c ****   osStatus result = osOK;
 639              		.loc 1 406 3 view .LVU123
 407:Middlewares/Third_Party/FreeRTOS/Source/CMSIS_RTOS/cmsis_os.c **** #if (configUSE_TIMERS == 1)  
 408:Middlewares/Third_Party/FreeRTOS/Source/CMSIS_RTOS/cmsis_os.c ****   portBASE_TYPE taskWoken = pdFALSE;
 409:Middlewares/Third_Party/FreeRTOS/Source/CMSIS_RTOS/cmsis_os.c ****   TickType_t ticks = millisec / portTICK_PERIOD_MS;
 410:Middlewares/Third_Party/FreeRTOS/Source/CMSIS_RTOS/cmsis_os.c **** 
 411:Middlewares/Third_Party/FreeRTOS/Source/CMSIS_RTOS/cmsis_os.c ****   if (ticks == 0)
 412:Middlewares/Third_Party/FreeRTOS/Source/CMSIS_RTOS/cmsis_os.c ****     ticks = 1;
 413:Middlewares/Third_Party/FreeRTOS/Source/CMSIS_RTOS/cmsis_os.c ****     
 414:Middlewares/Third_Party/FreeRTOS/Source/CMSIS_RTOS/cmsis_os.c ****   if (inHandlerMode()) 
 415:Middlewares/Third_Party/FreeRTOS/Source/CMSIS_RTOS/cmsis_os.c ****   {
 416:Middlewares/Third_Party/FreeRTOS/Source/CMSIS_RTOS/cmsis_os.c ****     if (xTimerChangePeriodFromISR(timer_id, ticks, &taskWoken) != pdPASS)
 417:Middlewares/Third_Party/FreeRTOS/Source/CMSIS_RTOS/cmsis_os.c ****     {
 418:Middlewares/Third_Party/FreeRTOS/Source/CMSIS_RTOS/cmsis_os.c ****       result = osErrorOS;
ARM GAS  /tmp/ccYrIPsY.s 			page 23


 419:Middlewares/Third_Party/FreeRTOS/Source/CMSIS_RTOS/cmsis_os.c ****     }
 420:Middlewares/Third_Party/FreeRTOS/Source/CMSIS_RTOS/cmsis_os.c ****     else
 421:Middlewares/Third_Party/FreeRTOS/Source/CMSIS_RTOS/cmsis_os.c ****     {
 422:Middlewares/Third_Party/FreeRTOS/Source/CMSIS_RTOS/cmsis_os.c ****       portEND_SWITCHING_ISR(taskWoken);     
 423:Middlewares/Third_Party/FreeRTOS/Source/CMSIS_RTOS/cmsis_os.c ****     }
 424:Middlewares/Third_Party/FreeRTOS/Source/CMSIS_RTOS/cmsis_os.c ****   }
 425:Middlewares/Third_Party/FreeRTOS/Source/CMSIS_RTOS/cmsis_os.c ****   else 
 426:Middlewares/Third_Party/FreeRTOS/Source/CMSIS_RTOS/cmsis_os.c ****   {
 427:Middlewares/Third_Party/FreeRTOS/Source/CMSIS_RTOS/cmsis_os.c ****     if (xTimerChangePeriod(timer_id, ticks, 0) != pdPASS)
 428:Middlewares/Third_Party/FreeRTOS/Source/CMSIS_RTOS/cmsis_os.c ****       result = osErrorOS;
 429:Middlewares/Third_Party/FreeRTOS/Source/CMSIS_RTOS/cmsis_os.c ****   }
 430:Middlewares/Third_Party/FreeRTOS/Source/CMSIS_RTOS/cmsis_os.c **** 
 431:Middlewares/Third_Party/FreeRTOS/Source/CMSIS_RTOS/cmsis_os.c **** #else 
 432:Middlewares/Third_Party/FreeRTOS/Source/CMSIS_RTOS/cmsis_os.c ****   result = osErrorOS;
 640              		.loc 1 432 3 view .LVU124
 433:Middlewares/Third_Party/FreeRTOS/Source/CMSIS_RTOS/cmsis_os.c **** #endif
 434:Middlewares/Third_Party/FreeRTOS/Source/CMSIS_RTOS/cmsis_os.c ****   return result;
 641              		.loc 1 434 3 view .LVU125
 435:Middlewares/Third_Party/FreeRTOS/Source/CMSIS_RTOS/cmsis_os.c **** }
 642              		.loc 1 435 1 is_stmt 0 view .LVU126
 643 0000 FF20     		movs	r0, #255
 644              	.LVL44:
 645              		.loc 1 435 1 view .LVU127
 646 0002 7047     		bx	lr
 647              		.cfi_endproc
 648              	.LFE121:
 650              		.section	.text.osTimerStop,"ax",%progbits
 651              		.align	1
 652              		.global	osTimerStop
 653              		.syntax unified
 654              		.thumb
 655              		.thumb_func
 656              		.fpu fpv4-sp-d16
 658              	osTimerStop:
 659              	.LVL45:
 660              	.LFB122:
 436:Middlewares/Third_Party/FreeRTOS/Source/CMSIS_RTOS/cmsis_os.c **** 
 437:Middlewares/Third_Party/FreeRTOS/Source/CMSIS_RTOS/cmsis_os.c **** /**
 438:Middlewares/Third_Party/FreeRTOS/Source/CMSIS_RTOS/cmsis_os.c **** * @brief  Stop a timer.
 439:Middlewares/Third_Party/FreeRTOS/Source/CMSIS_RTOS/cmsis_os.c **** * @param  timer_id      timer ID obtained by \ref osTimerCreate
 440:Middlewares/Third_Party/FreeRTOS/Source/CMSIS_RTOS/cmsis_os.c **** * @retval  status code that indicates the execution status of the function.
 441:Middlewares/Third_Party/FreeRTOS/Source/CMSIS_RTOS/cmsis_os.c **** * @note   MUST REMAIN UNCHANGED: \b osTimerStop shall be consistent in every CMSIS-RTOS.
 442:Middlewares/Third_Party/FreeRTOS/Source/CMSIS_RTOS/cmsis_os.c **** */
 443:Middlewares/Third_Party/FreeRTOS/Source/CMSIS_RTOS/cmsis_os.c **** osStatus osTimerStop (osTimerId timer_id)
 444:Middlewares/Third_Party/FreeRTOS/Source/CMSIS_RTOS/cmsis_os.c **** {
 661              		.loc 1 444 1 is_stmt 1 view -0
 662              		.cfi_startproc
 663              		@ args = 0, pretend = 0, frame = 0
 664              		@ frame_needed = 0, uses_anonymous_args = 0
 665              		@ link register save eliminated.
 445:Middlewares/Third_Party/FreeRTOS/Source/CMSIS_RTOS/cmsis_os.c ****   osStatus result = osOK;
 666              		.loc 1 445 3 view .LVU129
 446:Middlewares/Third_Party/FreeRTOS/Source/CMSIS_RTOS/cmsis_os.c **** #if (configUSE_TIMERS == 1)  
 447:Middlewares/Third_Party/FreeRTOS/Source/CMSIS_RTOS/cmsis_os.c ****   portBASE_TYPE taskWoken = pdFALSE;
 448:Middlewares/Third_Party/FreeRTOS/Source/CMSIS_RTOS/cmsis_os.c **** 
 449:Middlewares/Third_Party/FreeRTOS/Source/CMSIS_RTOS/cmsis_os.c ****   if (inHandlerMode()) {
 450:Middlewares/Third_Party/FreeRTOS/Source/CMSIS_RTOS/cmsis_os.c ****     if (xTimerStopFromISR(timer_id, &taskWoken) != pdPASS) {
ARM GAS  /tmp/ccYrIPsY.s 			page 24


 451:Middlewares/Third_Party/FreeRTOS/Source/CMSIS_RTOS/cmsis_os.c ****       return osErrorOS;
 452:Middlewares/Third_Party/FreeRTOS/Source/CMSIS_RTOS/cmsis_os.c ****     }
 453:Middlewares/Third_Party/FreeRTOS/Source/CMSIS_RTOS/cmsis_os.c ****     portEND_SWITCHING_ISR(taskWoken);
 454:Middlewares/Third_Party/FreeRTOS/Source/CMSIS_RTOS/cmsis_os.c ****   }
 455:Middlewares/Third_Party/FreeRTOS/Source/CMSIS_RTOS/cmsis_os.c ****   else {
 456:Middlewares/Third_Party/FreeRTOS/Source/CMSIS_RTOS/cmsis_os.c ****     if (xTimerStop(timer_id, 0) != pdPASS) {
 457:Middlewares/Third_Party/FreeRTOS/Source/CMSIS_RTOS/cmsis_os.c ****       result = osErrorOS;
 458:Middlewares/Third_Party/FreeRTOS/Source/CMSIS_RTOS/cmsis_os.c ****     }
 459:Middlewares/Third_Party/FreeRTOS/Source/CMSIS_RTOS/cmsis_os.c ****   }
 460:Middlewares/Third_Party/FreeRTOS/Source/CMSIS_RTOS/cmsis_os.c **** #else 
 461:Middlewares/Third_Party/FreeRTOS/Source/CMSIS_RTOS/cmsis_os.c ****   result = osErrorOS;
 667              		.loc 1 461 3 view .LVU130
 462:Middlewares/Third_Party/FreeRTOS/Source/CMSIS_RTOS/cmsis_os.c **** #endif 
 463:Middlewares/Third_Party/FreeRTOS/Source/CMSIS_RTOS/cmsis_os.c ****   return result;
 668              		.loc 1 463 3 view .LVU131
 464:Middlewares/Third_Party/FreeRTOS/Source/CMSIS_RTOS/cmsis_os.c **** }
 669              		.loc 1 464 1 is_stmt 0 view .LVU132
 670 0000 FF20     		movs	r0, #255
 671              	.LVL46:
 672              		.loc 1 464 1 view .LVU133
 673 0002 7047     		bx	lr
 674              		.cfi_endproc
 675              	.LFE122:
 677              		.section	.text.osTimerDelete,"ax",%progbits
 678              		.align	1
 679              		.global	osTimerDelete
 680              		.syntax unified
 681              		.thumb
 682              		.thumb_func
 683              		.fpu fpv4-sp-d16
 685              	osTimerDelete:
 686              	.LVL47:
 687              	.LFB123:
 465:Middlewares/Third_Party/FreeRTOS/Source/CMSIS_RTOS/cmsis_os.c **** 
 466:Middlewares/Third_Party/FreeRTOS/Source/CMSIS_RTOS/cmsis_os.c **** /**
 467:Middlewares/Third_Party/FreeRTOS/Source/CMSIS_RTOS/cmsis_os.c **** * @brief  Delete a timer.
 468:Middlewares/Third_Party/FreeRTOS/Source/CMSIS_RTOS/cmsis_os.c **** * @param  timer_id      timer ID obtained by \ref osTimerCreate
 469:Middlewares/Third_Party/FreeRTOS/Source/CMSIS_RTOS/cmsis_os.c **** * @retval  status code that indicates the execution status of the function.
 470:Middlewares/Third_Party/FreeRTOS/Source/CMSIS_RTOS/cmsis_os.c **** * @note   MUST REMAIN UNCHANGED: \b osTimerDelete shall be consistent in every CMSIS-RTOS.
 471:Middlewares/Third_Party/FreeRTOS/Source/CMSIS_RTOS/cmsis_os.c **** */
 472:Middlewares/Third_Party/FreeRTOS/Source/CMSIS_RTOS/cmsis_os.c **** osStatus osTimerDelete (osTimerId timer_id)
 473:Middlewares/Third_Party/FreeRTOS/Source/CMSIS_RTOS/cmsis_os.c **** {
 688              		.loc 1 473 1 is_stmt 1 view -0
 689              		.cfi_startproc
 690              		@ args = 0, pretend = 0, frame = 0
 691              		@ frame_needed = 0, uses_anonymous_args = 0
 692              		@ link register save eliminated.
 474:Middlewares/Third_Party/FreeRTOS/Source/CMSIS_RTOS/cmsis_os.c **** osStatus result = osOK;
 693              		.loc 1 474 1 view .LVU135
 475:Middlewares/Third_Party/FreeRTOS/Source/CMSIS_RTOS/cmsis_os.c **** 
 476:Middlewares/Third_Party/FreeRTOS/Source/CMSIS_RTOS/cmsis_os.c **** #if (configUSE_TIMERS == 1)
 477:Middlewares/Third_Party/FreeRTOS/Source/CMSIS_RTOS/cmsis_os.c **** 
 478:Middlewares/Third_Party/FreeRTOS/Source/CMSIS_RTOS/cmsis_os.c ****    if (inHandlerMode()) {
 479:Middlewares/Third_Party/FreeRTOS/Source/CMSIS_RTOS/cmsis_os.c ****      return osErrorISR;
 480:Middlewares/Third_Party/FreeRTOS/Source/CMSIS_RTOS/cmsis_os.c ****   }
 481:Middlewares/Third_Party/FreeRTOS/Source/CMSIS_RTOS/cmsis_os.c ****   else { 
 482:Middlewares/Third_Party/FreeRTOS/Source/CMSIS_RTOS/cmsis_os.c ****     if ((xTimerDelete(timer_id, osWaitForever )) != pdPASS) {
ARM GAS  /tmp/ccYrIPsY.s 			page 25


 483:Middlewares/Third_Party/FreeRTOS/Source/CMSIS_RTOS/cmsis_os.c ****       result = osErrorOS;
 484:Middlewares/Third_Party/FreeRTOS/Source/CMSIS_RTOS/cmsis_os.c ****     }
 485:Middlewares/Third_Party/FreeRTOS/Source/CMSIS_RTOS/cmsis_os.c ****   } 
 486:Middlewares/Third_Party/FreeRTOS/Source/CMSIS_RTOS/cmsis_os.c ****     
 487:Middlewares/Third_Party/FreeRTOS/Source/CMSIS_RTOS/cmsis_os.c **** #else 
 488:Middlewares/Third_Party/FreeRTOS/Source/CMSIS_RTOS/cmsis_os.c ****   result = osErrorOS;
 694              		.loc 1 488 3 view .LVU136
 489:Middlewares/Third_Party/FreeRTOS/Source/CMSIS_RTOS/cmsis_os.c **** #endif 
 490:Middlewares/Third_Party/FreeRTOS/Source/CMSIS_RTOS/cmsis_os.c ****  
 491:Middlewares/Third_Party/FreeRTOS/Source/CMSIS_RTOS/cmsis_os.c ****   return result;
 695              		.loc 1 491 3 view .LVU137
 492:Middlewares/Third_Party/FreeRTOS/Source/CMSIS_RTOS/cmsis_os.c **** }
 696              		.loc 1 492 1 is_stmt 0 view .LVU138
 697 0000 FF20     		movs	r0, #255
 698              	.LVL48:
 699              		.loc 1 492 1 view .LVU139
 700 0002 7047     		bx	lr
 701              		.cfi_endproc
 702              	.LFE123:
 704              		.section	.text.osSignalSet,"ax",%progbits
 705              		.align	1
 706              		.global	osSignalSet
 707              		.syntax unified
 708              		.thumb
 709              		.thumb_func
 710              		.fpu fpv4-sp-d16
 712              	osSignalSet:
 713              	.LVL49:
 714              	.LFB124:
 493:Middlewares/Third_Party/FreeRTOS/Source/CMSIS_RTOS/cmsis_os.c **** 
 494:Middlewares/Third_Party/FreeRTOS/Source/CMSIS_RTOS/cmsis_os.c **** /***************************  Signal Management ********************************/
 495:Middlewares/Third_Party/FreeRTOS/Source/CMSIS_RTOS/cmsis_os.c **** /**
 496:Middlewares/Third_Party/FreeRTOS/Source/CMSIS_RTOS/cmsis_os.c **** * @brief  Set the specified Signal Flags of an active thread.
 497:Middlewares/Third_Party/FreeRTOS/Source/CMSIS_RTOS/cmsis_os.c **** * @param  thread_id     thread ID obtained by \ref osThreadCreate or \ref osThreadGetId.
 498:Middlewares/Third_Party/FreeRTOS/Source/CMSIS_RTOS/cmsis_os.c **** * @param  signals       specifies the signal flags of the thread that should be set.
 499:Middlewares/Third_Party/FreeRTOS/Source/CMSIS_RTOS/cmsis_os.c **** * @retval previous signal flags of the specified thread or 0x80000000 in case of incorrect paramete
 500:Middlewares/Third_Party/FreeRTOS/Source/CMSIS_RTOS/cmsis_os.c **** * @note   MUST REMAIN UNCHANGED: \b osSignalSet shall be consistent in every CMSIS-RTOS.
 501:Middlewares/Third_Party/FreeRTOS/Source/CMSIS_RTOS/cmsis_os.c **** */
 502:Middlewares/Third_Party/FreeRTOS/Source/CMSIS_RTOS/cmsis_os.c **** int32_t osSignalSet (osThreadId thread_id, int32_t signal)
 503:Middlewares/Third_Party/FreeRTOS/Source/CMSIS_RTOS/cmsis_os.c **** {
 715              		.loc 1 503 1 is_stmt 1 view -0
 716              		.cfi_startproc
 717              		@ args = 0, pretend = 0, frame = 8
 718              		@ frame_needed = 0, uses_anonymous_args = 0
 719              		.loc 1 503 1 is_stmt 0 view .LVU141
 720 0000 30B5     		push	{r4, r5, lr}
 721              	.LCFI12:
 722              		.cfi_def_cfa_offset 12
 723              		.cfi_offset 4, -12
 724              		.cfi_offset 5, -8
 725              		.cfi_offset 14, -4
 726 0002 85B0     		sub	sp, sp, #20
 727              	.LCFI13:
 728              		.cfi_def_cfa_offset 32
 729 0004 0446     		mov	r4, r0
 730 0006 0D46     		mov	r5, r1
 504:Middlewares/Third_Party/FreeRTOS/Source/CMSIS_RTOS/cmsis_os.c **** #if( configUSE_TASK_NOTIFICATIONS == 1 )	
ARM GAS  /tmp/ccYrIPsY.s 			page 26


 505:Middlewares/Third_Party/FreeRTOS/Source/CMSIS_RTOS/cmsis_os.c ****   BaseType_t xHigherPriorityTaskWoken = pdFALSE;
 731              		.loc 1 505 3 is_stmt 1 view .LVU142
 732              		.loc 1 505 14 is_stmt 0 view .LVU143
 733 0008 0023     		movs	r3, #0
 734 000a 0393     		str	r3, [sp, #12]
 506:Middlewares/Third_Party/FreeRTOS/Source/CMSIS_RTOS/cmsis_os.c ****   uint32_t ulPreviousNotificationValue = 0;
 735              		.loc 1 506 3 is_stmt 1 view .LVU144
 736              		.loc 1 506 12 is_stmt 0 view .LVU145
 737 000c 0293     		str	r3, [sp, #8]
 507:Middlewares/Third_Party/FreeRTOS/Source/CMSIS_RTOS/cmsis_os.c ****   
 508:Middlewares/Third_Party/FreeRTOS/Source/CMSIS_RTOS/cmsis_os.c ****   if (inHandlerMode())
 738              		.loc 1 508 3 is_stmt 1 view .LVU146
 739              		.loc 1 508 7 is_stmt 0 view .LVU147
 740 000e FFF7FEFF 		bl	inHandlerMode
 741              	.LVL50:
 742              		.loc 1 508 6 view .LVU148
 743 0012 A0B1     		cbz	r0, .L49
 509:Middlewares/Third_Party/FreeRTOS/Source/CMSIS_RTOS/cmsis_os.c ****   {
 510:Middlewares/Third_Party/FreeRTOS/Source/CMSIS_RTOS/cmsis_os.c ****     if(xTaskGenericNotifyFromISR( thread_id , (uint32_t)signal, eSetBits, &ulPreviousNotificationVa
 744              		.loc 1 510 5 is_stmt 1 view .LVU149
 745              		.loc 1 510 8 is_stmt 0 view .LVU150
 746 0014 03AB     		add	r3, sp, #12
 747 0016 0093     		str	r3, [sp]
 748 0018 02AB     		add	r3, sp, #8
 749 001a 0122     		movs	r2, #1
 750 001c 2946     		mov	r1, r5
 751 001e 2046     		mov	r0, r4
 752 0020 FFF7FEFF 		bl	xTaskGenericNotifyFromISR
 753              	.LVL51:
 754              		.loc 1 510 7 view .LVU151
 755 0024 0128     		cmp	r0, #1
 756 0026 15D1     		bne	.L52
 511:Middlewares/Third_Party/FreeRTOS/Source/CMSIS_RTOS/cmsis_os.c ****       return 0x80000000;
 512:Middlewares/Third_Party/FreeRTOS/Source/CMSIS_RTOS/cmsis_os.c ****     
 513:Middlewares/Third_Party/FreeRTOS/Source/CMSIS_RTOS/cmsis_os.c ****     portYIELD_FROM_ISR( xHigherPriorityTaskWoken );
 757              		.loc 1 513 5 is_stmt 1 view .LVU152
 758 0028 039B     		ldr	r3, [sp, #12]
 759 002a 83B1     		cbz	r3, .L51
 760              		.loc 1 513 5 discriminator 1 view .LVU153
 761 002c 0C4B     		ldr	r3, .L55
 762 002e 4FF08052 		mov	r2, #268435456
 763 0032 1A60     		str	r2, [r3]
 764              		.loc 1 513 5 discriminator 1 view .LVU154
 765              		.syntax unified
 766              	@ 513 "Middlewares/Third_Party/FreeRTOS/Source/CMSIS_RTOS/cmsis_os.c" 1
 767 0034 BFF34F8F 		dsb
 768              	@ 0 "" 2
 769              		.loc 1 513 5 discriminator 1 view .LVU155
 770              	@ 513 "Middlewares/Third_Party/FreeRTOS/Source/CMSIS_RTOS/cmsis_os.c" 1
 771 0038 BFF36F8F 		isb
 772              	@ 0 "" 2
 773              		.thumb
 774              		.syntax unified
 775 003c 07E0     		b	.L51
 776              	.L49:
 514:Middlewares/Third_Party/FreeRTOS/Source/CMSIS_RTOS/cmsis_os.c ****   }  
 515:Middlewares/Third_Party/FreeRTOS/Source/CMSIS_RTOS/cmsis_os.c ****   else if(xTaskGenericNotify( thread_id , (uint32_t)signal, eSetBits, &ulPreviousNotificationValue)
ARM GAS  /tmp/ccYrIPsY.s 			page 27


 777              		.loc 1 515 8 view .LVU156
 778              		.loc 1 515 11 is_stmt 0 view .LVU157
 779 003e 02AB     		add	r3, sp, #8
 780 0040 0122     		movs	r2, #1
 781 0042 2946     		mov	r1, r5
 782 0044 2046     		mov	r0, r4
 783 0046 FFF7FEFF 		bl	xTaskGenericNotify
 784              	.LVL52:
 785              		.loc 1 515 10 view .LVU158
 786 004a 0128     		cmp	r0, #1
 787 004c 05D1     		bne	.L53
 788              	.L51:
 516:Middlewares/Third_Party/FreeRTOS/Source/CMSIS_RTOS/cmsis_os.c ****     return 0x80000000;
 517:Middlewares/Third_Party/FreeRTOS/Source/CMSIS_RTOS/cmsis_os.c ****   
 518:Middlewares/Third_Party/FreeRTOS/Source/CMSIS_RTOS/cmsis_os.c ****   return ulPreviousNotificationValue;
 789              		.loc 1 518 3 is_stmt 1 view .LVU159
 790              		.loc 1 518 10 is_stmt 0 view .LVU160
 791 004e 0298     		ldr	r0, [sp, #8]
 792              	.L48:
 519:Middlewares/Third_Party/FreeRTOS/Source/CMSIS_RTOS/cmsis_os.c **** #else
 520:Middlewares/Third_Party/FreeRTOS/Source/CMSIS_RTOS/cmsis_os.c ****   (void) thread_id;
 521:Middlewares/Third_Party/FreeRTOS/Source/CMSIS_RTOS/cmsis_os.c ****   (void) signal;
 522:Middlewares/Third_Party/FreeRTOS/Source/CMSIS_RTOS/cmsis_os.c **** 
 523:Middlewares/Third_Party/FreeRTOS/Source/CMSIS_RTOS/cmsis_os.c ****   return 0x80000000; /* Task Notification not supported */ 	
 524:Middlewares/Third_Party/FreeRTOS/Source/CMSIS_RTOS/cmsis_os.c **** #endif
 525:Middlewares/Third_Party/FreeRTOS/Source/CMSIS_RTOS/cmsis_os.c **** }
 793              		.loc 1 525 1 view .LVU161
 794 0050 05B0     		add	sp, sp, #20
 795              	.LCFI14:
 796              		.cfi_remember_state
 797              		.cfi_def_cfa_offset 12
 798              		@ sp needed
 799 0052 30BD     		pop	{r4, r5, pc}
 800              	.LVL53:
 801              	.L52:
 802              	.LCFI15:
 803              		.cfi_restore_state
 511:Middlewares/Third_Party/FreeRTOS/Source/CMSIS_RTOS/cmsis_os.c ****     
 804              		.loc 1 511 14 view .LVU162
 805 0054 4FF00040 		mov	r0, #-2147483648
 806 0058 FAE7     		b	.L48
 807              	.L53:
 516:Middlewares/Third_Party/FreeRTOS/Source/CMSIS_RTOS/cmsis_os.c ****     return 0x80000000;
 808              		.loc 1 516 12 view .LVU163
 809 005a 4FF00040 		mov	r0, #-2147483648
 810 005e F7E7     		b	.L48
 811              	.L56:
 812              		.align	2
 813              	.L55:
 814 0060 04ED00E0 		.word	-536810236
 815              		.cfi_endproc
 816              	.LFE124:
 818              		.section	.text.osSignalWait,"ax",%progbits
 819              		.align	1
 820              		.global	osSignalWait
 821              		.syntax unified
 822              		.thumb
ARM GAS  /tmp/ccYrIPsY.s 			page 28


 823              		.thumb_func
 824              		.fpu fpv4-sp-d16
 826              	osSignalWait:
 827              	.LVL54:
 828              	.LFB125:
 526:Middlewares/Third_Party/FreeRTOS/Source/CMSIS_RTOS/cmsis_os.c **** 
 527:Middlewares/Third_Party/FreeRTOS/Source/CMSIS_RTOS/cmsis_os.c **** /**
 528:Middlewares/Third_Party/FreeRTOS/Source/CMSIS_RTOS/cmsis_os.c **** * @brief  Clear the specified Signal Flags of an active thread.
 529:Middlewares/Third_Party/FreeRTOS/Source/CMSIS_RTOS/cmsis_os.c **** * @param  thread_id  thread ID obtained by \ref osThreadCreate or \ref osThreadGetId.
 530:Middlewares/Third_Party/FreeRTOS/Source/CMSIS_RTOS/cmsis_os.c **** * @param  signals    specifies the signal flags of the thread that shall be cleared.
 531:Middlewares/Third_Party/FreeRTOS/Source/CMSIS_RTOS/cmsis_os.c **** * @retval  previous signal flags of the specified thread or 0x80000000 in case of incorrect paramet
 532:Middlewares/Third_Party/FreeRTOS/Source/CMSIS_RTOS/cmsis_os.c **** * @note   MUST REMAIN UNCHANGED: \b osSignalClear shall be consistent in every CMSIS-RTOS.
 533:Middlewares/Third_Party/FreeRTOS/Source/CMSIS_RTOS/cmsis_os.c **** */
 534:Middlewares/Third_Party/FreeRTOS/Source/CMSIS_RTOS/cmsis_os.c **** int32_t osSignalClear (osThreadId thread_id, int32_t signal);
 535:Middlewares/Third_Party/FreeRTOS/Source/CMSIS_RTOS/cmsis_os.c **** 
 536:Middlewares/Third_Party/FreeRTOS/Source/CMSIS_RTOS/cmsis_os.c **** /**
 537:Middlewares/Third_Party/FreeRTOS/Source/CMSIS_RTOS/cmsis_os.c **** * @brief  Wait for one or more Signal Flags to become signaled for the current \b RUNNING thread.
 538:Middlewares/Third_Party/FreeRTOS/Source/CMSIS_RTOS/cmsis_os.c **** * @param  signals   wait until all specified signal flags set or 0 for any single signal flag.
 539:Middlewares/Third_Party/FreeRTOS/Source/CMSIS_RTOS/cmsis_os.c **** * @param  millisec  timeout value or 0 in case of no time-out.
 540:Middlewares/Third_Party/FreeRTOS/Source/CMSIS_RTOS/cmsis_os.c **** * @retval  event flag information or error code.
 541:Middlewares/Third_Party/FreeRTOS/Source/CMSIS_RTOS/cmsis_os.c **** * @note   MUST REMAIN UNCHANGED: \b osSignalWait shall be consistent in every CMSIS-RTOS.
 542:Middlewares/Third_Party/FreeRTOS/Source/CMSIS_RTOS/cmsis_os.c **** */
 543:Middlewares/Third_Party/FreeRTOS/Source/CMSIS_RTOS/cmsis_os.c **** osEvent osSignalWait (int32_t signals, uint32_t millisec)
 544:Middlewares/Third_Party/FreeRTOS/Source/CMSIS_RTOS/cmsis_os.c **** {
 829              		.loc 1 544 1 is_stmt 1 view -0
 830              		.cfi_startproc
 831              		@ args = 0, pretend = 0, frame = 16
 832              		@ frame_needed = 0, uses_anonymous_args = 0
 833              		.loc 1 544 1 is_stmt 0 view .LVU165
 834 0000 70B5     		push	{r4, r5, r6, lr}
 835              	.LCFI16:
 836              		.cfi_def_cfa_offset 16
 837              		.cfi_offset 4, -16
 838              		.cfi_offset 5, -12
 839              		.cfi_offset 6, -8
 840              		.cfi_offset 14, -4
 841 0002 84B0     		sub	sp, sp, #16
 842              	.LCFI17:
 843              		.cfi_def_cfa_offset 32
 844 0004 0446     		mov	r4, r0
 845 0006 0E46     		mov	r6, r1
 846 0008 1546     		mov	r5, r2
 545:Middlewares/Third_Party/FreeRTOS/Source/CMSIS_RTOS/cmsis_os.c ****   osEvent ret;
 847              		.loc 1 545 3 is_stmt 1 view .LVU166
 546:Middlewares/Third_Party/FreeRTOS/Source/CMSIS_RTOS/cmsis_os.c **** 
 547:Middlewares/Third_Party/FreeRTOS/Source/CMSIS_RTOS/cmsis_os.c **** #if( configUSE_TASK_NOTIFICATIONS == 1 )
 548:Middlewares/Third_Party/FreeRTOS/Source/CMSIS_RTOS/cmsis_os.c **** 	
 549:Middlewares/Third_Party/FreeRTOS/Source/CMSIS_RTOS/cmsis_os.c ****   TickType_t ticks;
 848              		.loc 1 549 3 view .LVU167
 550:Middlewares/Third_Party/FreeRTOS/Source/CMSIS_RTOS/cmsis_os.c **** 
 551:Middlewares/Third_Party/FreeRTOS/Source/CMSIS_RTOS/cmsis_os.c ****   ret.value.signals = 0;  
 849              		.loc 1 551 3 view .LVU168
 850              		.loc 1 551 21 is_stmt 0 view .LVU169
 851 000a 0023     		movs	r3, #0
 852 000c 0293     		str	r3, [sp, #8]
 552:Middlewares/Third_Party/FreeRTOS/Source/CMSIS_RTOS/cmsis_os.c ****   ticks = 0;
 853              		.loc 1 552 3 is_stmt 1 view .LVU170
ARM GAS  /tmp/ccYrIPsY.s 			page 29


 854              	.LVL55:
 553:Middlewares/Third_Party/FreeRTOS/Source/CMSIS_RTOS/cmsis_os.c ****   if (millisec == osWaitForever) {
 855              		.loc 1 553 3 view .LVU171
 856              		.loc 1 553 6 is_stmt 0 view .LVU172
 857 000e B2F1FF3F 		cmp	r2, #-1
 858 0012 08D0     		beq	.L58
 554:Middlewares/Third_Party/FreeRTOS/Source/CMSIS_RTOS/cmsis_os.c ****     ticks = portMAX_DELAY;
 555:Middlewares/Third_Party/FreeRTOS/Source/CMSIS_RTOS/cmsis_os.c ****   }
 556:Middlewares/Third_Party/FreeRTOS/Source/CMSIS_RTOS/cmsis_os.c ****   else if (millisec != 0) {
 859              		.loc 1 556 8 is_stmt 1 view .LVU173
 860              		.loc 1 556 11 is_stmt 0 view .LVU174
 861 0014 3AB1     		cbz	r2, .L58
 557:Middlewares/Third_Party/FreeRTOS/Source/CMSIS_RTOS/cmsis_os.c ****     ticks = millisec / portTICK_PERIOD_MS;
 862              		.loc 1 557 5 is_stmt 1 view .LVU175
 863              		.loc 1 557 11 is_stmt 0 view .LVU176
 864 0016 A3F13333 		sub	r3, r3, #858993459
 865 001a A3FB0523 		umull	r2, r3, r3, r5
 866              	.LVL56:
 867              		.loc 1 557 11 view .LVU177
 868 001e DB08     		lsrs	r3, r3, #3
 869              	.LVL57:
 558:Middlewares/Third_Party/FreeRTOS/Source/CMSIS_RTOS/cmsis_os.c ****     if (ticks == 0) {
 870              		.loc 1 558 5 is_stmt 1 view .LVU178
 871              		.loc 1 558 8 is_stmt 0 view .LVU179
 872 0020 092D     		cmp	r5, #9
 873 0022 0DD9     		bls	.L64
 557:Middlewares/Third_Party/FreeRTOS/Source/CMSIS_RTOS/cmsis_os.c ****     ticks = millisec / portTICK_PERIOD_MS;
 874              		.loc 1 557 11 view .LVU180
 875 0024 1D46     		mov	r5, r3
 876              	.LVL58:
 877              	.L58:
 559:Middlewares/Third_Party/FreeRTOS/Source/CMSIS_RTOS/cmsis_os.c ****       ticks = 1;
 560:Middlewares/Third_Party/FreeRTOS/Source/CMSIS_RTOS/cmsis_os.c ****     }
 561:Middlewares/Third_Party/FreeRTOS/Source/CMSIS_RTOS/cmsis_os.c ****   }  
 562:Middlewares/Third_Party/FreeRTOS/Source/CMSIS_RTOS/cmsis_os.c ****   
 563:Middlewares/Third_Party/FreeRTOS/Source/CMSIS_RTOS/cmsis_os.c ****   if (inHandlerMode())
 878              		.loc 1 563 3 is_stmt 1 view .LVU181
 879              		.loc 1 563 7 is_stmt 0 view .LVU182
 880 0026 FFF7FEFF 		bl	inHandlerMode
 881              	.LVL59:
 882              		.loc 1 563 6 view .LVU183
 883 002a 58B1     		cbz	r0, .L59
 564:Middlewares/Third_Party/FreeRTOS/Source/CMSIS_RTOS/cmsis_os.c ****   {
 565:Middlewares/Third_Party/FreeRTOS/Source/CMSIS_RTOS/cmsis_os.c ****     ret.status = osErrorISR;  /*Not allowed in ISR*/
 884              		.loc 1 565 5 is_stmt 1 view .LVU184
 885              		.loc 1 565 16 is_stmt 0 view .LVU185
 886 002c 8223     		movs	r3, #130
 887 002e 0193     		str	r3, [sp, #4]
 888              	.L60:
 566:Middlewares/Third_Party/FreeRTOS/Source/CMSIS_RTOS/cmsis_os.c ****   }
 567:Middlewares/Third_Party/FreeRTOS/Source/CMSIS_RTOS/cmsis_os.c ****   else
 568:Middlewares/Third_Party/FreeRTOS/Source/CMSIS_RTOS/cmsis_os.c ****   {
 569:Middlewares/Third_Party/FreeRTOS/Source/CMSIS_RTOS/cmsis_os.c ****     if(xTaskNotifyWait( 0,(uint32_t) signals, (uint32_t *)&ret.value.signals, ticks) != pdTRUE)
 570:Middlewares/Third_Party/FreeRTOS/Source/CMSIS_RTOS/cmsis_os.c ****     {
 571:Middlewares/Third_Party/FreeRTOS/Source/CMSIS_RTOS/cmsis_os.c ****       if(ticks == 0)  ret.status = osOK;
 572:Middlewares/Third_Party/FreeRTOS/Source/CMSIS_RTOS/cmsis_os.c ****       else  ret.status = osEventTimeout;
 573:Middlewares/Third_Party/FreeRTOS/Source/CMSIS_RTOS/cmsis_os.c ****     }
ARM GAS  /tmp/ccYrIPsY.s 			page 30


 574:Middlewares/Third_Party/FreeRTOS/Source/CMSIS_RTOS/cmsis_os.c ****     else if(ret.value.signals < 0)
 575:Middlewares/Third_Party/FreeRTOS/Source/CMSIS_RTOS/cmsis_os.c ****     {
 576:Middlewares/Third_Party/FreeRTOS/Source/CMSIS_RTOS/cmsis_os.c ****       ret.status =  osErrorValue;     
 577:Middlewares/Third_Party/FreeRTOS/Source/CMSIS_RTOS/cmsis_os.c ****     }
 578:Middlewares/Third_Party/FreeRTOS/Source/CMSIS_RTOS/cmsis_os.c ****     else  ret.status =  osEventSignal;
 579:Middlewares/Third_Party/FreeRTOS/Source/CMSIS_RTOS/cmsis_os.c ****   }
 580:Middlewares/Third_Party/FreeRTOS/Source/CMSIS_RTOS/cmsis_os.c **** #else
 581:Middlewares/Third_Party/FreeRTOS/Source/CMSIS_RTOS/cmsis_os.c ****   (void) signals;
 582:Middlewares/Third_Party/FreeRTOS/Source/CMSIS_RTOS/cmsis_os.c ****   (void) millisec;
 583:Middlewares/Third_Party/FreeRTOS/Source/CMSIS_RTOS/cmsis_os.c **** 	
 584:Middlewares/Third_Party/FreeRTOS/Source/CMSIS_RTOS/cmsis_os.c ****   ret.status =  osErrorOS;	/* Task Notification not supported */
 585:Middlewares/Third_Party/FreeRTOS/Source/CMSIS_RTOS/cmsis_os.c **** #endif
 586:Middlewares/Third_Party/FreeRTOS/Source/CMSIS_RTOS/cmsis_os.c ****   
 587:Middlewares/Third_Party/FreeRTOS/Source/CMSIS_RTOS/cmsis_os.c ****   return ret;
 889              		.loc 1 587 3 is_stmt 1 view .LVU186
 890              		.loc 1 587 10 is_stmt 0 view .LVU187
 891 0030 04AB     		add	r3, sp, #16
 892 0032 13E90700 		ldmdb	r3, {r0, r1, r2}
 893 0036 84E80700 		stm	r4, {r0, r1, r2}
 588:Middlewares/Third_Party/FreeRTOS/Source/CMSIS_RTOS/cmsis_os.c **** }
 894              		.loc 1 588 1 view .LVU188
 895 003a 2046     		mov	r0, r4
 896 003c 04B0     		add	sp, sp, #16
 897              	.LCFI18:
 898              		.cfi_remember_state
 899              		.cfi_def_cfa_offset 16
 900              		@ sp needed
 901 003e 70BD     		pop	{r4, r5, r6, pc}
 902              	.LVL60:
 903              	.L64:
 904              	.LCFI19:
 905              		.cfi_restore_state
 559:Middlewares/Third_Party/FreeRTOS/Source/CMSIS_RTOS/cmsis_os.c ****     }
 906              		.loc 1 559 13 view .LVU189
 907 0040 0125     		movs	r5, #1
 908              	.LVL61:
 559:Middlewares/Third_Party/FreeRTOS/Source/CMSIS_RTOS/cmsis_os.c ****     }
 909              		.loc 1 559 13 view .LVU190
 910 0042 F0E7     		b	.L58
 911              	.LVL62:
 912              	.L59:
 569:Middlewares/Third_Party/FreeRTOS/Source/CMSIS_RTOS/cmsis_os.c ****     {
 913              		.loc 1 569 5 is_stmt 1 view .LVU191
 569:Middlewares/Third_Party/FreeRTOS/Source/CMSIS_RTOS/cmsis_os.c ****     {
 914              		.loc 1 569 8 is_stmt 0 view .LVU192
 915 0044 2B46     		mov	r3, r5
 916 0046 02AA     		add	r2, sp, #8
 917 0048 3146     		mov	r1, r6
 918 004a 0020     		movs	r0, #0
 919 004c FFF7FEFF 		bl	xTaskNotifyWait
 920              	.LVL63:
 569:Middlewares/Third_Party/FreeRTOS/Source/CMSIS_RTOS/cmsis_os.c ****     {
 921              		.loc 1 569 7 view .LVU193
 922 0050 0128     		cmp	r0, #1
 923 0052 06D0     		beq	.L61
 571:Middlewares/Third_Party/FreeRTOS/Source/CMSIS_RTOS/cmsis_os.c ****       else  ret.status = osEventTimeout;
 924              		.loc 1 571 7 is_stmt 1 view .LVU194
ARM GAS  /tmp/ccYrIPsY.s 			page 31


 571:Middlewares/Third_Party/FreeRTOS/Source/CMSIS_RTOS/cmsis_os.c ****       else  ret.status = osEventTimeout;
 925              		.loc 1 571 9 is_stmt 0 view .LVU195
 926 0054 15B9     		cbnz	r5, .L62
 571:Middlewares/Third_Party/FreeRTOS/Source/CMSIS_RTOS/cmsis_os.c ****       else  ret.status = osEventTimeout;
 927              		.loc 1 571 23 is_stmt 1 discriminator 1 view .LVU196
 571:Middlewares/Third_Party/FreeRTOS/Source/CMSIS_RTOS/cmsis_os.c ****       else  ret.status = osEventTimeout;
 928              		.loc 1 571 34 is_stmt 0 discriminator 1 view .LVU197
 929 0056 0023     		movs	r3, #0
 930 0058 0193     		str	r3, [sp, #4]
 931 005a E9E7     		b	.L60
 932              	.L62:
 572:Middlewares/Third_Party/FreeRTOS/Source/CMSIS_RTOS/cmsis_os.c ****     }
 933              		.loc 1 572 13 is_stmt 1 view .LVU198
 572:Middlewares/Third_Party/FreeRTOS/Source/CMSIS_RTOS/cmsis_os.c ****     }
 934              		.loc 1 572 24 is_stmt 0 view .LVU199
 935 005c 4023     		movs	r3, #64
 936 005e 0193     		str	r3, [sp, #4]
 937 0060 E6E7     		b	.L60
 938              	.L61:
 574:Middlewares/Third_Party/FreeRTOS/Source/CMSIS_RTOS/cmsis_os.c ****     {
 939              		.loc 1 574 10 is_stmt 1 view .LVU200
 574:Middlewares/Third_Party/FreeRTOS/Source/CMSIS_RTOS/cmsis_os.c ****     {
 940              		.loc 1 574 22 is_stmt 0 view .LVU201
 941 0062 029B     		ldr	r3, [sp, #8]
 574:Middlewares/Third_Party/FreeRTOS/Source/CMSIS_RTOS/cmsis_os.c ****     {
 942              		.loc 1 574 12 view .LVU202
 943 0064 002B     		cmp	r3, #0
 944 0066 02DB     		blt	.L66
 578:Middlewares/Third_Party/FreeRTOS/Source/CMSIS_RTOS/cmsis_os.c ****   }
 945              		.loc 1 578 11 is_stmt 1 view .LVU203
 578:Middlewares/Third_Party/FreeRTOS/Source/CMSIS_RTOS/cmsis_os.c ****   }
 946              		.loc 1 578 22 is_stmt 0 view .LVU204
 947 0068 0823     		movs	r3, #8
 948 006a 0193     		str	r3, [sp, #4]
 949 006c E0E7     		b	.L60
 950              	.L66:
 576:Middlewares/Third_Party/FreeRTOS/Source/CMSIS_RTOS/cmsis_os.c ****     }
 951              		.loc 1 576 7 is_stmt 1 view .LVU205
 576:Middlewares/Third_Party/FreeRTOS/Source/CMSIS_RTOS/cmsis_os.c ****     }
 952              		.loc 1 576 18 is_stmt 0 view .LVU206
 953 006e 8623     		movs	r3, #134
 954 0070 0193     		str	r3, [sp, #4]
 955 0072 DDE7     		b	.L60
 956              		.cfi_endproc
 957              	.LFE125:
 959              		.section	.text.osMutexCreate,"ax",%progbits
 960              		.align	1
 961              		.global	osMutexCreate
 962              		.syntax unified
 963              		.thumb
 964              		.thumb_func
 965              		.fpu fpv4-sp-d16
 967              	osMutexCreate:
 968              	.LVL64:
 969              	.LFB126:
 589:Middlewares/Third_Party/FreeRTOS/Source/CMSIS_RTOS/cmsis_os.c **** 
 590:Middlewares/Third_Party/FreeRTOS/Source/CMSIS_RTOS/cmsis_os.c **** /****************************  Mutex Management ********************************/
ARM GAS  /tmp/ccYrIPsY.s 			page 32


 591:Middlewares/Third_Party/FreeRTOS/Source/CMSIS_RTOS/cmsis_os.c **** /**
 592:Middlewares/Third_Party/FreeRTOS/Source/CMSIS_RTOS/cmsis_os.c **** * @brief  Create and Initialize a Mutex object
 593:Middlewares/Third_Party/FreeRTOS/Source/CMSIS_RTOS/cmsis_os.c **** * @param  mutex_def     mutex definition referenced with \ref osMutex.
 594:Middlewares/Third_Party/FreeRTOS/Source/CMSIS_RTOS/cmsis_os.c **** * @retval  mutex ID for reference by other functions or NULL in case of error.
 595:Middlewares/Third_Party/FreeRTOS/Source/CMSIS_RTOS/cmsis_os.c **** * @note   MUST REMAIN UNCHANGED: \b osMutexCreate shall be consistent in every CMSIS-RTOS.
 596:Middlewares/Third_Party/FreeRTOS/Source/CMSIS_RTOS/cmsis_os.c **** */
 597:Middlewares/Third_Party/FreeRTOS/Source/CMSIS_RTOS/cmsis_os.c **** osMutexId osMutexCreate (const osMutexDef_t *mutex_def)
 598:Middlewares/Third_Party/FreeRTOS/Source/CMSIS_RTOS/cmsis_os.c **** {
 970              		.loc 1 598 1 is_stmt 1 view -0
 971              		.cfi_startproc
 972              		@ args = 0, pretend = 0, frame = 0
 973              		@ frame_needed = 0, uses_anonymous_args = 0
 974              		.loc 1 598 1 is_stmt 0 view .LVU208
 975 0000 08B5     		push	{r3, lr}
 976              	.LCFI20:
 977              		.cfi_def_cfa_offset 8
 978              		.cfi_offset 3, -8
 979              		.cfi_offset 14, -4
 599:Middlewares/Third_Party/FreeRTOS/Source/CMSIS_RTOS/cmsis_os.c **** #if ( configUSE_MUTEXES == 1)
 600:Middlewares/Third_Party/FreeRTOS/Source/CMSIS_RTOS/cmsis_os.c **** 
 601:Middlewares/Third_Party/FreeRTOS/Source/CMSIS_RTOS/cmsis_os.c **** #if( configSUPPORT_STATIC_ALLOCATION == 1 ) && ( configSUPPORT_DYNAMIC_ALLOCATION == 1 )
 602:Middlewares/Third_Party/FreeRTOS/Source/CMSIS_RTOS/cmsis_os.c **** 
 603:Middlewares/Third_Party/FreeRTOS/Source/CMSIS_RTOS/cmsis_os.c ****   if (mutex_def->controlblock != NULL) {
 980              		.loc 1 603 3 is_stmt 1 view .LVU209
 981              		.loc 1 603 16 is_stmt 0 view .LVU210
 982 0002 4168     		ldr	r1, [r0, #4]
 983              		.loc 1 603 6 view .LVU211
 984 0004 19B1     		cbz	r1, .L68
 604:Middlewares/Third_Party/FreeRTOS/Source/CMSIS_RTOS/cmsis_os.c ****     return xSemaphoreCreateMutexStatic( mutex_def->controlblock );
 985              		.loc 1 604 5 is_stmt 1 view .LVU212
 986              		.loc 1 604 12 is_stmt 0 view .LVU213
 987 0006 0120     		movs	r0, #1
 988              	.LVL65:
 989              		.loc 1 604 12 view .LVU214
 990 0008 FFF7FEFF 		bl	xQueueCreateMutexStatic
 991              	.LVL66:
 992              	.L67:
 605:Middlewares/Third_Party/FreeRTOS/Source/CMSIS_RTOS/cmsis_os.c ****      }
 606:Middlewares/Third_Party/FreeRTOS/Source/CMSIS_RTOS/cmsis_os.c ****   else {
 607:Middlewares/Third_Party/FreeRTOS/Source/CMSIS_RTOS/cmsis_os.c ****     return xSemaphoreCreateMutex(); 
 608:Middlewares/Third_Party/FreeRTOS/Source/CMSIS_RTOS/cmsis_os.c ****   }
 609:Middlewares/Third_Party/FreeRTOS/Source/CMSIS_RTOS/cmsis_os.c **** #elif ( configSUPPORT_STATIC_ALLOCATION == 1 )
 610:Middlewares/Third_Party/FreeRTOS/Source/CMSIS_RTOS/cmsis_os.c ****   return xSemaphoreCreateMutexStatic( mutex_def->controlblock );
 611:Middlewares/Third_Party/FreeRTOS/Source/CMSIS_RTOS/cmsis_os.c **** #else  
 612:Middlewares/Third_Party/FreeRTOS/Source/CMSIS_RTOS/cmsis_os.c ****     return xSemaphoreCreateMutex(); 
 613:Middlewares/Third_Party/FreeRTOS/Source/CMSIS_RTOS/cmsis_os.c **** #endif
 614:Middlewares/Third_Party/FreeRTOS/Source/CMSIS_RTOS/cmsis_os.c **** #else
 615:Middlewares/Third_Party/FreeRTOS/Source/CMSIS_RTOS/cmsis_os.c ****   return NULL;
 616:Middlewares/Third_Party/FreeRTOS/Source/CMSIS_RTOS/cmsis_os.c **** #endif
 617:Middlewares/Third_Party/FreeRTOS/Source/CMSIS_RTOS/cmsis_os.c **** }
 993              		.loc 1 617 1 view .LVU215
 994 000c 08BD     		pop	{r3, pc}
 995              	.LVL67:
 996              	.L68:
 607:Middlewares/Third_Party/FreeRTOS/Source/CMSIS_RTOS/cmsis_os.c ****   }
 997              		.loc 1 607 5 is_stmt 1 view .LVU216
 607:Middlewares/Third_Party/FreeRTOS/Source/CMSIS_RTOS/cmsis_os.c ****   }
ARM GAS  /tmp/ccYrIPsY.s 			page 33


 998              		.loc 1 607 12 is_stmt 0 view .LVU217
 999 000e 0120     		movs	r0, #1
 1000              	.LVL68:
 607:Middlewares/Third_Party/FreeRTOS/Source/CMSIS_RTOS/cmsis_os.c ****   }
 1001              		.loc 1 607 12 view .LVU218
 1002 0010 FFF7FEFF 		bl	xQueueCreateMutex
 1003              	.LVL69:
 1004 0014 FAE7     		b	.L67
 1005              		.cfi_endproc
 1006              	.LFE126:
 1008              		.section	.text.osMutexWait,"ax",%progbits
 1009              		.align	1
 1010              		.global	osMutexWait
 1011              		.syntax unified
 1012              		.thumb
 1013              		.thumb_func
 1014              		.fpu fpv4-sp-d16
 1016              	osMutexWait:
 1017              	.LVL70:
 1018              	.LFB127:
 618:Middlewares/Third_Party/FreeRTOS/Source/CMSIS_RTOS/cmsis_os.c **** 
 619:Middlewares/Third_Party/FreeRTOS/Source/CMSIS_RTOS/cmsis_os.c **** /**
 620:Middlewares/Third_Party/FreeRTOS/Source/CMSIS_RTOS/cmsis_os.c **** * @brief Wait until a Mutex becomes available
 621:Middlewares/Third_Party/FreeRTOS/Source/CMSIS_RTOS/cmsis_os.c **** * @param mutex_id      mutex ID obtained by \ref osMutexCreate.
 622:Middlewares/Third_Party/FreeRTOS/Source/CMSIS_RTOS/cmsis_os.c **** * @param millisec      timeout value or 0 in case of no time-out.
 623:Middlewares/Third_Party/FreeRTOS/Source/CMSIS_RTOS/cmsis_os.c **** * @retval  status code that indicates the execution status of the function.
 624:Middlewares/Third_Party/FreeRTOS/Source/CMSIS_RTOS/cmsis_os.c **** * @note   MUST REMAIN UNCHANGED: \b osMutexWait shall be consistent in every CMSIS-RTOS.
 625:Middlewares/Third_Party/FreeRTOS/Source/CMSIS_RTOS/cmsis_os.c **** */
 626:Middlewares/Third_Party/FreeRTOS/Source/CMSIS_RTOS/cmsis_os.c **** osStatus osMutexWait (osMutexId mutex_id, uint32_t millisec)
 627:Middlewares/Third_Party/FreeRTOS/Source/CMSIS_RTOS/cmsis_os.c **** {
 1019              		.loc 1 627 1 is_stmt 1 view -0
 1020              		.cfi_startproc
 1021              		@ args = 0, pretend = 0, frame = 8
 1022              		@ frame_needed = 0, uses_anonymous_args = 0
 1023              		.loc 1 627 1 is_stmt 0 view .LVU220
 1024 0000 30B5     		push	{r4, r5, lr}
 1025              	.LCFI21:
 1026              		.cfi_def_cfa_offset 12
 1027              		.cfi_offset 4, -12
 1028              		.cfi_offset 5, -8
 1029              		.cfi_offset 14, -4
 1030 0002 83B0     		sub	sp, sp, #12
 1031              	.LCFI22:
 1032              		.cfi_def_cfa_offset 24
 628:Middlewares/Third_Party/FreeRTOS/Source/CMSIS_RTOS/cmsis_os.c ****   TickType_t ticks;
 1033              		.loc 1 628 3 is_stmt 1 view .LVU221
 629:Middlewares/Third_Party/FreeRTOS/Source/CMSIS_RTOS/cmsis_os.c ****   portBASE_TYPE taskWoken = pdFALSE;  
 1034              		.loc 1 629 3 view .LVU222
 1035              		.loc 1 629 17 is_stmt 0 view .LVU223
 1036 0004 0023     		movs	r3, #0
 1037 0006 0193     		str	r3, [sp, #4]
 630:Middlewares/Third_Party/FreeRTOS/Source/CMSIS_RTOS/cmsis_os.c ****   
 631:Middlewares/Third_Party/FreeRTOS/Source/CMSIS_RTOS/cmsis_os.c ****   
 632:Middlewares/Third_Party/FreeRTOS/Source/CMSIS_RTOS/cmsis_os.c ****   if (mutex_id == NULL) {
 1038              		.loc 1 632 3 is_stmt 1 view .LVU224
 1039              		.loc 1 632 6 is_stmt 0 view .LVU225
 1040 0008 70B3     		cbz	r0, .L75
ARM GAS  /tmp/ccYrIPsY.s 			page 34


 1041 000a 0C46     		mov	r4, r1
 1042 000c 0546     		mov	r5, r0
 633:Middlewares/Third_Party/FreeRTOS/Source/CMSIS_RTOS/cmsis_os.c ****     return osErrorParameter;
 634:Middlewares/Third_Party/FreeRTOS/Source/CMSIS_RTOS/cmsis_os.c ****   }
 635:Middlewares/Third_Party/FreeRTOS/Source/CMSIS_RTOS/cmsis_os.c ****   
 636:Middlewares/Third_Party/FreeRTOS/Source/CMSIS_RTOS/cmsis_os.c ****   ticks = 0;
 1043              		.loc 1 636 3 is_stmt 1 view .LVU226
 1044              	.LVL71:
 637:Middlewares/Third_Party/FreeRTOS/Source/CMSIS_RTOS/cmsis_os.c ****   if (millisec == osWaitForever) {
 1045              		.loc 1 637 3 view .LVU227
 1046              		.loc 1 637 6 is_stmt 0 view .LVU228
 1047 000e B1F1FF3F 		cmp	r1, #-1
 1048 0012 08D0     		beq	.L73
 638:Middlewares/Third_Party/FreeRTOS/Source/CMSIS_RTOS/cmsis_os.c ****     ticks = portMAX_DELAY;
 639:Middlewares/Third_Party/FreeRTOS/Source/CMSIS_RTOS/cmsis_os.c ****   }
 640:Middlewares/Third_Party/FreeRTOS/Source/CMSIS_RTOS/cmsis_os.c ****   else if (millisec != 0) {
 1049              		.loc 1 640 8 is_stmt 1 view .LVU229
 1050              		.loc 1 640 11 is_stmt 0 view .LVU230
 1051 0014 39B1     		cbz	r1, .L73
 641:Middlewares/Third_Party/FreeRTOS/Source/CMSIS_RTOS/cmsis_os.c ****     ticks = millisec / portTICK_PERIOD_MS;
 1052              		.loc 1 641 5 is_stmt 1 view .LVU231
 1053              		.loc 1 641 11 is_stmt 0 view .LVU232
 1054 0016 A3F13333 		sub	r3, r3, #858993459
 1055 001a A3FB0123 		umull	r2, r3, r3, r1
 1056 001e DB08     		lsrs	r3, r3, #3
 1057              	.LVL72:
 642:Middlewares/Third_Party/FreeRTOS/Source/CMSIS_RTOS/cmsis_os.c ****     if (ticks == 0) {
 1058              		.loc 1 642 5 is_stmt 1 view .LVU233
 1059              		.loc 1 642 8 is_stmt 0 view .LVU234
 1060 0020 0929     		cmp	r1, #9
 1061 0022 16D9     		bls	.L76
 641:Middlewares/Third_Party/FreeRTOS/Source/CMSIS_RTOS/cmsis_os.c ****     ticks = millisec / portTICK_PERIOD_MS;
 1062              		.loc 1 641 11 view .LVU235
 1063 0024 1C46     		mov	r4, r3
 1064              	.LVL73:
 1065              	.L73:
 643:Middlewares/Third_Party/FreeRTOS/Source/CMSIS_RTOS/cmsis_os.c ****       ticks = 1;
 644:Middlewares/Third_Party/FreeRTOS/Source/CMSIS_RTOS/cmsis_os.c ****     }
 645:Middlewares/Third_Party/FreeRTOS/Source/CMSIS_RTOS/cmsis_os.c ****   }
 646:Middlewares/Third_Party/FreeRTOS/Source/CMSIS_RTOS/cmsis_os.c ****   
 647:Middlewares/Third_Party/FreeRTOS/Source/CMSIS_RTOS/cmsis_os.c ****   if (inHandlerMode()) {
 1066              		.loc 1 647 3 is_stmt 1 view .LVU236
 1067              		.loc 1 647 7 is_stmt 0 view .LVU237
 1068 0026 FFF7FEFF 		bl	inHandlerMode
 1069              	.LVL74:
 1070              		.loc 1 647 6 view .LVU238
 1071 002a A0B1     		cbz	r0, .L74
 648:Middlewares/Third_Party/FreeRTOS/Source/CMSIS_RTOS/cmsis_os.c ****     if (xSemaphoreTakeFromISR(mutex_id, &taskWoken) != pdTRUE) {
 1072              		.loc 1 648 5 is_stmt 1 view .LVU239
 1073              		.loc 1 648 9 is_stmt 0 view .LVU240
 1074 002c 01AA     		add	r2, sp, #4
 1075 002e 0021     		movs	r1, #0
 1076 0030 2846     		mov	r0, r5
 1077 0032 FFF7FEFF 		bl	xQueueReceiveFromISR
 1078              	.LVL75:
 1079              		.loc 1 648 8 view .LVU241
 1080 0036 0128     		cmp	r0, #1
ARM GAS  /tmp/ccYrIPsY.s 			page 35


 1081 0038 18D1     		bne	.L77
 649:Middlewares/Third_Party/FreeRTOS/Source/CMSIS_RTOS/cmsis_os.c ****       return osErrorOS;
 650:Middlewares/Third_Party/FreeRTOS/Source/CMSIS_RTOS/cmsis_os.c ****     }
 651:Middlewares/Third_Party/FreeRTOS/Source/CMSIS_RTOS/cmsis_os.c **** 	portEND_SWITCHING_ISR(taskWoken);
 1082              		.loc 1 651 2 is_stmt 1 view .LVU242
 1083 003a 019B     		ldr	r3, [sp, #4]
 1084 003c C3B1     		cbz	r3, .L78
 1085              		.loc 1 651 2 discriminator 1 view .LVU243
 1086 003e 0E4B     		ldr	r3, .L81
 1087 0040 4FF08052 		mov	r2, #268435456
 1088 0044 1A60     		str	r2, [r3]
 1089              		.loc 1 651 2 discriminator 1 view .LVU244
 1090              		.syntax unified
 1091              	@ 651 "Middlewares/Third_Party/FreeRTOS/Source/CMSIS_RTOS/cmsis_os.c" 1
 1092 0046 BFF34F8F 		dsb
 1093              	@ 0 "" 2
 1094              		.loc 1 651 2 discriminator 1 view .LVU245
 1095              	@ 651 "Middlewares/Third_Party/FreeRTOS/Source/CMSIS_RTOS/cmsis_os.c" 1
 1096 004a BFF36F8F 		isb
 1097              	@ 0 "" 2
 652:Middlewares/Third_Party/FreeRTOS/Source/CMSIS_RTOS/cmsis_os.c ****   } 
 653:Middlewares/Third_Party/FreeRTOS/Source/CMSIS_RTOS/cmsis_os.c ****   else if (xSemaphoreTake(mutex_id, ticks) != pdTRUE) {
 654:Middlewares/Third_Party/FreeRTOS/Source/CMSIS_RTOS/cmsis_os.c ****     return osErrorOS;
 655:Middlewares/Third_Party/FreeRTOS/Source/CMSIS_RTOS/cmsis_os.c ****   }
 656:Middlewares/Third_Party/FreeRTOS/Source/CMSIS_RTOS/cmsis_os.c ****   
 657:Middlewares/Third_Party/FreeRTOS/Source/CMSIS_RTOS/cmsis_os.c ****   return osOK;
 1098              		.loc 1 657 10 is_stmt 0 discriminator 1 view .LVU246
 1099              		.thumb
 1100              		.syntax unified
 1101 004e 0020     		movs	r0, #0
 1102 0050 08E0     		b	.L71
 1103              	.LVL76:
 1104              	.L76:
 643:Middlewares/Third_Party/FreeRTOS/Source/CMSIS_RTOS/cmsis_os.c ****     }
 1105              		.loc 1 643 13 view .LVU247
 1106 0052 0124     		movs	r4, #1
 1107 0054 E7E7     		b	.L73
 1108              	.LVL77:
 1109              	.L74:
 653:Middlewares/Third_Party/FreeRTOS/Source/CMSIS_RTOS/cmsis_os.c ****     return osErrorOS;
 1110              		.loc 1 653 8 is_stmt 1 view .LVU248
 653:Middlewares/Third_Party/FreeRTOS/Source/CMSIS_RTOS/cmsis_os.c ****     return osErrorOS;
 1111              		.loc 1 653 12 is_stmt 0 view .LVU249
 1112 0056 2146     		mov	r1, r4
 1113 0058 2846     		mov	r0, r5
 1114 005a FFF7FEFF 		bl	xQueueSemaphoreTake
 1115              	.LVL78:
 653:Middlewares/Third_Party/FreeRTOS/Source/CMSIS_RTOS/cmsis_os.c ****     return osErrorOS;
 1116              		.loc 1 653 11 view .LVU250
 1117 005e 0128     		cmp	r0, #1
 1118 0060 08D1     		bne	.L79
 1119              		.loc 1 657 10 view .LVU251
 1120 0062 0020     		movs	r0, #0
 1121              	.LVL79:
 1122              	.L71:
 658:Middlewares/Third_Party/FreeRTOS/Source/CMSIS_RTOS/cmsis_os.c **** }
 1123              		.loc 1 658 1 view .LVU252
ARM GAS  /tmp/ccYrIPsY.s 			page 36


 1124 0064 03B0     		add	sp, sp, #12
 1125              	.LCFI23:
 1126              		.cfi_remember_state
 1127              		.cfi_def_cfa_offset 12
 1128              		@ sp needed
 1129 0066 30BD     		pop	{r4, r5, pc}
 1130              	.LVL80:
 1131              	.L75:
 1132              	.LCFI24:
 1133              		.cfi_restore_state
 633:Middlewares/Third_Party/FreeRTOS/Source/CMSIS_RTOS/cmsis_os.c ****   }
 1134              		.loc 1 633 12 view .LVU253
 1135 0068 8020     		movs	r0, #128
 1136              	.LVL81:
 633:Middlewares/Third_Party/FreeRTOS/Source/CMSIS_RTOS/cmsis_os.c ****   }
 1137              		.loc 1 633 12 view .LVU254
 1138 006a FBE7     		b	.L71
 1139              	.LVL82:
 1140              	.L77:
 649:Middlewares/Third_Party/FreeRTOS/Source/CMSIS_RTOS/cmsis_os.c ****     }
 1141              		.loc 1 649 14 view .LVU255
 1142 006c FF20     		movs	r0, #255
 1143 006e F9E7     		b	.L71
 1144              	.L78:
 657:Middlewares/Third_Party/FreeRTOS/Source/CMSIS_RTOS/cmsis_os.c **** }
 1145              		.loc 1 657 10 view .LVU256
 1146 0070 0020     		movs	r0, #0
 1147 0072 F7E7     		b	.L71
 1148              	.L79:
 654:Middlewares/Third_Party/FreeRTOS/Source/CMSIS_RTOS/cmsis_os.c ****   }
 1149              		.loc 1 654 12 view .LVU257
 1150 0074 FF20     		movs	r0, #255
 1151 0076 F5E7     		b	.L71
 1152              	.L82:
 1153              		.align	2
 1154              	.L81:
 1155 0078 04ED00E0 		.word	-536810236
 1156              		.cfi_endproc
 1157              	.LFE127:
 1159              		.section	.text.osMutexRelease,"ax",%progbits
 1160              		.align	1
 1161              		.global	osMutexRelease
 1162              		.syntax unified
 1163              		.thumb
 1164              		.thumb_func
 1165              		.fpu fpv4-sp-d16
 1167              	osMutexRelease:
 1168              	.LVL83:
 1169              	.LFB128:
 659:Middlewares/Third_Party/FreeRTOS/Source/CMSIS_RTOS/cmsis_os.c **** 
 660:Middlewares/Third_Party/FreeRTOS/Source/CMSIS_RTOS/cmsis_os.c **** /**
 661:Middlewares/Third_Party/FreeRTOS/Source/CMSIS_RTOS/cmsis_os.c **** * @brief Release a Mutex that was obtained by \ref osMutexWait
 662:Middlewares/Third_Party/FreeRTOS/Source/CMSIS_RTOS/cmsis_os.c **** * @param mutex_id      mutex ID obtained by \ref osMutexCreate.
 663:Middlewares/Third_Party/FreeRTOS/Source/CMSIS_RTOS/cmsis_os.c **** * @retval  status code that indicates the execution status of the function.
 664:Middlewares/Third_Party/FreeRTOS/Source/CMSIS_RTOS/cmsis_os.c **** * @note   MUST REMAIN UNCHANGED: \b osMutexRelease shall be consistent in every CMSIS-RTOS.
 665:Middlewares/Third_Party/FreeRTOS/Source/CMSIS_RTOS/cmsis_os.c **** */
 666:Middlewares/Third_Party/FreeRTOS/Source/CMSIS_RTOS/cmsis_os.c **** osStatus osMutexRelease (osMutexId mutex_id)
ARM GAS  /tmp/ccYrIPsY.s 			page 37


 667:Middlewares/Third_Party/FreeRTOS/Source/CMSIS_RTOS/cmsis_os.c **** {
 1170              		.loc 1 667 1 is_stmt 1 view -0
 1171              		.cfi_startproc
 1172              		@ args = 0, pretend = 0, frame = 8
 1173              		@ frame_needed = 0, uses_anonymous_args = 0
 1174              		.loc 1 667 1 is_stmt 0 view .LVU259
 1175 0000 10B5     		push	{r4, lr}
 1176              	.LCFI25:
 1177              		.cfi_def_cfa_offset 8
 1178              		.cfi_offset 4, -8
 1179              		.cfi_offset 14, -4
 1180 0002 82B0     		sub	sp, sp, #8
 1181              	.LCFI26:
 1182              		.cfi_def_cfa_offset 16
 1183 0004 0446     		mov	r4, r0
 668:Middlewares/Third_Party/FreeRTOS/Source/CMSIS_RTOS/cmsis_os.c ****   osStatus result = osOK;
 1184              		.loc 1 668 3 is_stmt 1 view .LVU260
 1185              	.LVL84:
 669:Middlewares/Third_Party/FreeRTOS/Source/CMSIS_RTOS/cmsis_os.c ****   portBASE_TYPE taskWoken = pdFALSE;
 1186              		.loc 1 669 3 view .LVU261
 1187              		.loc 1 669 17 is_stmt 0 view .LVU262
 1188 0006 0023     		movs	r3, #0
 1189 0008 0193     		str	r3, [sp, #4]
 670:Middlewares/Third_Party/FreeRTOS/Source/CMSIS_RTOS/cmsis_os.c ****   
 671:Middlewares/Third_Party/FreeRTOS/Source/CMSIS_RTOS/cmsis_os.c ****   if (inHandlerMode()) {
 1190              		.loc 1 671 3 is_stmt 1 view .LVU263
 1191              		.loc 1 671 7 is_stmt 0 view .LVU264
 1192 000a FFF7FEFF 		bl	inHandlerMode
 1193              	.LVL85:
 1194              		.loc 1 671 6 view .LVU265
 1195 000e 88B1     		cbz	r0, .L84
 672:Middlewares/Third_Party/FreeRTOS/Source/CMSIS_RTOS/cmsis_os.c ****     if (xSemaphoreGiveFromISR(mutex_id, &taskWoken) != pdTRUE) {
 1196              		.loc 1 672 5 is_stmt 1 view .LVU266
 1197              		.loc 1 672 9 is_stmt 0 view .LVU267
 1198 0010 01A9     		add	r1, sp, #4
 1199 0012 2046     		mov	r0, r4
 1200 0014 FFF7FEFF 		bl	xQueueGiveFromISR
 1201              	.LVL86:
 1202              		.loc 1 672 8 view .LVU268
 1203 0018 0128     		cmp	r0, #1
 1204 001a 18D1     		bne	.L86
 673:Middlewares/Third_Party/FreeRTOS/Source/CMSIS_RTOS/cmsis_os.c ****       return osErrorOS;
 674:Middlewares/Third_Party/FreeRTOS/Source/CMSIS_RTOS/cmsis_os.c ****     }
 675:Middlewares/Third_Party/FreeRTOS/Source/CMSIS_RTOS/cmsis_os.c ****     portEND_SWITCHING_ISR(taskWoken);
 1205              		.loc 1 675 5 is_stmt 1 view .LVU269
 1206 001c 019B     		ldr	r3, [sp, #4]
 1207 001e C3B1     		cbz	r3, .L87
 1208              		.loc 1 675 5 discriminator 1 view .LVU270
 1209 0020 0D4B     		ldr	r3, .L91
 1210 0022 4FF08052 		mov	r2, #268435456
 1211 0026 1A60     		str	r2, [r3]
 1212              		.loc 1 675 5 discriminator 1 view .LVU271
 1213              		.syntax unified
 1214              	@ 675 "Middlewares/Third_Party/FreeRTOS/Source/CMSIS_RTOS/cmsis_os.c" 1
 1215 0028 BFF34F8F 		dsb
 1216              	@ 0 "" 2
 1217              		.loc 1 675 5 discriminator 1 view .LVU272
ARM GAS  /tmp/ccYrIPsY.s 			page 38


 1218              	@ 675 "Middlewares/Third_Party/FreeRTOS/Source/CMSIS_RTOS/cmsis_os.c" 1
 1219 002c BFF36F8F 		isb
 1220              	@ 0 "" 2
 668:Middlewares/Third_Party/FreeRTOS/Source/CMSIS_RTOS/cmsis_os.c ****   portBASE_TYPE taskWoken = pdFALSE;
 1221              		.loc 1 668 12 is_stmt 0 discriminator 1 view .LVU273
 1222              		.thumb
 1223              		.syntax unified
 1224 0030 0020     		movs	r0, #0
 1225 0032 08E0     		b	.L83
 1226              	.L84:
 676:Middlewares/Third_Party/FreeRTOS/Source/CMSIS_RTOS/cmsis_os.c ****   }
 677:Middlewares/Third_Party/FreeRTOS/Source/CMSIS_RTOS/cmsis_os.c ****   else if (xSemaphoreGive(mutex_id) != pdTRUE) 
 1227              		.loc 1 677 8 is_stmt 1 view .LVU274
 1228              		.loc 1 677 12 is_stmt 0 view .LVU275
 1229 0034 0023     		movs	r3, #0
 1230 0036 1A46     		mov	r2, r3
 1231 0038 1946     		mov	r1, r3
 1232 003a 2046     		mov	r0, r4
 1233 003c FFF7FEFF 		bl	xQueueGenericSend
 1234              	.LVL87:
 1235              		.loc 1 677 11 view .LVU276
 1236 0040 0128     		cmp	r0, #1
 1237 0042 02D0     		beq	.L90
 678:Middlewares/Third_Party/FreeRTOS/Source/CMSIS_RTOS/cmsis_os.c ****   {
 679:Middlewares/Third_Party/FreeRTOS/Source/CMSIS_RTOS/cmsis_os.c ****     result = osErrorOS;
 1238              		.loc 1 679 12 view .LVU277
 1239 0044 FF20     		movs	r0, #255
 1240              	.LVL88:
 1241              	.L83:
 680:Middlewares/Third_Party/FreeRTOS/Source/CMSIS_RTOS/cmsis_os.c ****   }
 681:Middlewares/Third_Party/FreeRTOS/Source/CMSIS_RTOS/cmsis_os.c ****   return result;
 682:Middlewares/Third_Party/FreeRTOS/Source/CMSIS_RTOS/cmsis_os.c **** }
 1242              		.loc 1 682 1 view .LVU278
 1243 0046 02B0     		add	sp, sp, #8
 1244              	.LCFI27:
 1245              		.cfi_remember_state
 1246              		.cfi_def_cfa_offset 8
 1247              		@ sp needed
 1248 0048 10BD     		pop	{r4, pc}
 1249              	.LVL89:
 1250              	.L90:
 1251              	.LCFI28:
 1252              		.cfi_restore_state
 668:Middlewares/Third_Party/FreeRTOS/Source/CMSIS_RTOS/cmsis_os.c ****   portBASE_TYPE taskWoken = pdFALSE;
 1253              		.loc 1 668 12 view .LVU279
 1254 004a 0020     		movs	r0, #0
 1255 004c FBE7     		b	.L83
 1256              	.L86:
 673:Middlewares/Third_Party/FreeRTOS/Source/CMSIS_RTOS/cmsis_os.c ****     }
 1257              		.loc 1 673 14 view .LVU280
 1258 004e FF20     		movs	r0, #255
 1259 0050 F9E7     		b	.L83
 1260              	.L87:
 668:Middlewares/Third_Party/FreeRTOS/Source/CMSIS_RTOS/cmsis_os.c ****   portBASE_TYPE taskWoken = pdFALSE;
 1261              		.loc 1 668 12 view .LVU281
 1262 0052 0020     		movs	r0, #0
 1263 0054 F7E7     		b	.L83
ARM GAS  /tmp/ccYrIPsY.s 			page 39


 1264              	.L92:
 1265 0056 00BF     		.align	2
 1266              	.L91:
 1267 0058 04ED00E0 		.word	-536810236
 1268              		.cfi_endproc
 1269              	.LFE128:
 1271              		.section	.text.osMutexDelete,"ax",%progbits
 1272              		.align	1
 1273              		.global	osMutexDelete
 1274              		.syntax unified
 1275              		.thumb
 1276              		.thumb_func
 1277              		.fpu fpv4-sp-d16
 1279              	osMutexDelete:
 1280              	.LVL90:
 1281              	.LFB129:
 683:Middlewares/Third_Party/FreeRTOS/Source/CMSIS_RTOS/cmsis_os.c **** 
 684:Middlewares/Third_Party/FreeRTOS/Source/CMSIS_RTOS/cmsis_os.c **** /**
 685:Middlewares/Third_Party/FreeRTOS/Source/CMSIS_RTOS/cmsis_os.c **** * @brief Delete a Mutex
 686:Middlewares/Third_Party/FreeRTOS/Source/CMSIS_RTOS/cmsis_os.c **** * @param mutex_id  mutex ID obtained by \ref osMutexCreate.
 687:Middlewares/Third_Party/FreeRTOS/Source/CMSIS_RTOS/cmsis_os.c **** * @retval  status code that indicates the execution status of the function.
 688:Middlewares/Third_Party/FreeRTOS/Source/CMSIS_RTOS/cmsis_os.c **** * @note   MUST REMAIN UNCHANGED: \b osMutexDelete shall be consistent in every CMSIS-RTOS.
 689:Middlewares/Third_Party/FreeRTOS/Source/CMSIS_RTOS/cmsis_os.c **** */
 690:Middlewares/Third_Party/FreeRTOS/Source/CMSIS_RTOS/cmsis_os.c **** osStatus osMutexDelete (osMutexId mutex_id)
 691:Middlewares/Third_Party/FreeRTOS/Source/CMSIS_RTOS/cmsis_os.c **** {
 1282              		.loc 1 691 1 is_stmt 1 view -0
 1283              		.cfi_startproc
 1284              		@ args = 0, pretend = 0, frame = 0
 1285              		@ frame_needed = 0, uses_anonymous_args = 0
 1286              		.loc 1 691 1 is_stmt 0 view .LVU283
 1287 0000 10B5     		push	{r4, lr}
 1288              	.LCFI29:
 1289              		.cfi_def_cfa_offset 8
 1290              		.cfi_offset 4, -8
 1291              		.cfi_offset 14, -4
 1292 0002 0446     		mov	r4, r0
 692:Middlewares/Third_Party/FreeRTOS/Source/CMSIS_RTOS/cmsis_os.c ****   if (inHandlerMode()) {
 1293              		.loc 1 692 3 is_stmt 1 view .LVU284
 1294              		.loc 1 692 7 is_stmt 0 view .LVU285
 1295 0004 FFF7FEFF 		bl	inHandlerMode
 1296              	.LVL91:
 1297              		.loc 1 692 6 view .LVU286
 1298 0008 20B9     		cbnz	r0, .L95
 693:Middlewares/Third_Party/FreeRTOS/Source/CMSIS_RTOS/cmsis_os.c ****     return osErrorISR;
 694:Middlewares/Third_Party/FreeRTOS/Source/CMSIS_RTOS/cmsis_os.c ****   }
 695:Middlewares/Third_Party/FreeRTOS/Source/CMSIS_RTOS/cmsis_os.c **** 
 696:Middlewares/Third_Party/FreeRTOS/Source/CMSIS_RTOS/cmsis_os.c ****   vQueueDelete(mutex_id);
 1299              		.loc 1 696 3 is_stmt 1 view .LVU287
 1300 000a 2046     		mov	r0, r4
 1301 000c FFF7FEFF 		bl	vQueueDelete
 1302              	.LVL92:
 697:Middlewares/Third_Party/FreeRTOS/Source/CMSIS_RTOS/cmsis_os.c **** 
 698:Middlewares/Third_Party/FreeRTOS/Source/CMSIS_RTOS/cmsis_os.c ****   return osOK;
 1303              		.loc 1 698 3 view .LVU288
 1304              		.loc 1 698 10 is_stmt 0 view .LVU289
 1305 0010 0020     		movs	r0, #0
 1306              	.L93:
ARM GAS  /tmp/ccYrIPsY.s 			page 40


 699:Middlewares/Third_Party/FreeRTOS/Source/CMSIS_RTOS/cmsis_os.c **** }
 1307              		.loc 1 699 1 view .LVU290
 1308 0012 10BD     		pop	{r4, pc}
 1309              	.LVL93:
 1310              	.L95:
 693:Middlewares/Third_Party/FreeRTOS/Source/CMSIS_RTOS/cmsis_os.c ****     return osErrorISR;
 1311              		.loc 1 693 12 view .LVU291
 1312 0014 8220     		movs	r0, #130
 1313 0016 FCE7     		b	.L93
 1314              		.cfi_endproc
 1315              	.LFE129:
 1317              		.section	.text.osSemaphoreCreate,"ax",%progbits
 1318              		.align	1
 1319              		.global	osSemaphoreCreate
 1320              		.syntax unified
 1321              		.thumb
 1322              		.thumb_func
 1323              		.fpu fpv4-sp-d16
 1325              	osSemaphoreCreate:
 1326              	.LVL94:
 1327              	.LFB130:
 700:Middlewares/Third_Party/FreeRTOS/Source/CMSIS_RTOS/cmsis_os.c **** 
 701:Middlewares/Third_Party/FreeRTOS/Source/CMSIS_RTOS/cmsis_os.c **** /********************  Semaphore Management Functions **************************/
 702:Middlewares/Third_Party/FreeRTOS/Source/CMSIS_RTOS/cmsis_os.c **** 
 703:Middlewares/Third_Party/FreeRTOS/Source/CMSIS_RTOS/cmsis_os.c **** #if (defined (osFeature_Semaphore)  &&  (osFeature_Semaphore != 0))
 704:Middlewares/Third_Party/FreeRTOS/Source/CMSIS_RTOS/cmsis_os.c **** 
 705:Middlewares/Third_Party/FreeRTOS/Source/CMSIS_RTOS/cmsis_os.c **** /**
 706:Middlewares/Third_Party/FreeRTOS/Source/CMSIS_RTOS/cmsis_os.c **** * @brief Create and Initialize a Semaphore object used for managing resources
 707:Middlewares/Third_Party/FreeRTOS/Source/CMSIS_RTOS/cmsis_os.c **** * @param semaphore_def semaphore definition referenced with \ref osSemaphore.
 708:Middlewares/Third_Party/FreeRTOS/Source/CMSIS_RTOS/cmsis_os.c **** * @param count         number of available resources.
 709:Middlewares/Third_Party/FreeRTOS/Source/CMSIS_RTOS/cmsis_os.c **** * @retval  semaphore ID for reference by other functions or NULL in case of error.
 710:Middlewares/Third_Party/FreeRTOS/Source/CMSIS_RTOS/cmsis_os.c **** * @note   MUST REMAIN UNCHANGED: \b osSemaphoreCreate shall be consistent in every CMSIS-RTOS.
 711:Middlewares/Third_Party/FreeRTOS/Source/CMSIS_RTOS/cmsis_os.c **** */
 712:Middlewares/Third_Party/FreeRTOS/Source/CMSIS_RTOS/cmsis_os.c **** osSemaphoreId osSemaphoreCreate (const osSemaphoreDef_t *semaphore_def, int32_t count)
 713:Middlewares/Third_Party/FreeRTOS/Source/CMSIS_RTOS/cmsis_os.c **** { 
 1328              		.loc 1 713 1 is_stmt 1 view -0
 1329              		.cfi_startproc
 1330              		@ args = 0, pretend = 0, frame = 0
 1331              		@ frame_needed = 0, uses_anonymous_args = 0
 1332              		.loc 1 713 1 is_stmt 0 view .LVU293
 1333 0000 10B5     		push	{r4, lr}
 1334              	.LCFI30:
 1335              		.cfi_def_cfa_offset 8
 1336              		.cfi_offset 4, -8
 1337              		.cfi_offset 14, -4
 1338 0002 82B0     		sub	sp, sp, #8
 1339              	.LCFI31:
 1340              		.cfi_def_cfa_offset 16
 714:Middlewares/Third_Party/FreeRTOS/Source/CMSIS_RTOS/cmsis_os.c **** #if( configSUPPORT_STATIC_ALLOCATION == 1 ) && ( configSUPPORT_DYNAMIC_ALLOCATION == 1 )
 715:Middlewares/Third_Party/FreeRTOS/Source/CMSIS_RTOS/cmsis_os.c **** 
 716:Middlewares/Third_Party/FreeRTOS/Source/CMSIS_RTOS/cmsis_os.c ****   osSemaphoreId sema;
 1341              		.loc 1 716 3 is_stmt 1 view .LVU294
 717:Middlewares/Third_Party/FreeRTOS/Source/CMSIS_RTOS/cmsis_os.c ****   
 718:Middlewares/Third_Party/FreeRTOS/Source/CMSIS_RTOS/cmsis_os.c ****   if (semaphore_def->controlblock != NULL){
 1342              		.loc 1 718 3 view .LVU295
 1343              		.loc 1 718 20 is_stmt 0 view .LVU296
 1344 0004 4468     		ldr	r4, [r0, #4]
ARM GAS  /tmp/ccYrIPsY.s 			page 41


 1345              		.loc 1 718 6 view .LVU297
 1346 0006 7CB1     		cbz	r4, .L98
 719:Middlewares/Third_Party/FreeRTOS/Source/CMSIS_RTOS/cmsis_os.c ****     if (count == 1) {
 1347              		.loc 1 719 5 is_stmt 1 view .LVU298
 1348              		.loc 1 719 8 is_stmt 0 view .LVU299
 1349 0008 0129     		cmp	r1, #1
 1350 000a 03D0     		beq	.L103
 720:Middlewares/Third_Party/FreeRTOS/Source/CMSIS_RTOS/cmsis_os.c ****       return xSemaphoreCreateBinaryStatic( semaphore_def->controlblock );
 721:Middlewares/Third_Party/FreeRTOS/Source/CMSIS_RTOS/cmsis_os.c ****     }
 722:Middlewares/Third_Party/FreeRTOS/Source/CMSIS_RTOS/cmsis_os.c ****     else {
 723:Middlewares/Third_Party/FreeRTOS/Source/CMSIS_RTOS/cmsis_os.c **** #if (configUSE_COUNTING_SEMAPHORES == 1 )
 724:Middlewares/Third_Party/FreeRTOS/Source/CMSIS_RTOS/cmsis_os.c ****       return xSemaphoreCreateCountingStatic( count, count, semaphore_def->controlblock );
 725:Middlewares/Third_Party/FreeRTOS/Source/CMSIS_RTOS/cmsis_os.c **** #else
 726:Middlewares/Third_Party/FreeRTOS/Source/CMSIS_RTOS/cmsis_os.c ****       return NULL;
 1351              		.loc 1 726 14 view .LVU300
 1352 000c 0024     		movs	r4, #0
 1353              	.LVL95:
 1354              	.L97:
 727:Middlewares/Third_Party/FreeRTOS/Source/CMSIS_RTOS/cmsis_os.c **** #endif
 728:Middlewares/Third_Party/FreeRTOS/Source/CMSIS_RTOS/cmsis_os.c ****     }
 729:Middlewares/Third_Party/FreeRTOS/Source/CMSIS_RTOS/cmsis_os.c ****   }
 730:Middlewares/Third_Party/FreeRTOS/Source/CMSIS_RTOS/cmsis_os.c ****   else {
 731:Middlewares/Third_Party/FreeRTOS/Source/CMSIS_RTOS/cmsis_os.c ****     if (count == 1) {
 732:Middlewares/Third_Party/FreeRTOS/Source/CMSIS_RTOS/cmsis_os.c ****       vSemaphoreCreateBinary(sema);
 733:Middlewares/Third_Party/FreeRTOS/Source/CMSIS_RTOS/cmsis_os.c ****       return sema;
 734:Middlewares/Third_Party/FreeRTOS/Source/CMSIS_RTOS/cmsis_os.c ****     }
 735:Middlewares/Third_Party/FreeRTOS/Source/CMSIS_RTOS/cmsis_os.c ****     else {
 736:Middlewares/Third_Party/FreeRTOS/Source/CMSIS_RTOS/cmsis_os.c **** #if (configUSE_COUNTING_SEMAPHORES == 1 )	
 737:Middlewares/Third_Party/FreeRTOS/Source/CMSIS_RTOS/cmsis_os.c ****       return xSemaphoreCreateCounting(count, count);
 738:Middlewares/Third_Party/FreeRTOS/Source/CMSIS_RTOS/cmsis_os.c **** #else
 739:Middlewares/Third_Party/FreeRTOS/Source/CMSIS_RTOS/cmsis_os.c ****       return NULL;
 740:Middlewares/Third_Party/FreeRTOS/Source/CMSIS_RTOS/cmsis_os.c **** #endif    
 741:Middlewares/Third_Party/FreeRTOS/Source/CMSIS_RTOS/cmsis_os.c ****     }
 742:Middlewares/Third_Party/FreeRTOS/Source/CMSIS_RTOS/cmsis_os.c ****   }
 743:Middlewares/Third_Party/FreeRTOS/Source/CMSIS_RTOS/cmsis_os.c **** #elif ( configSUPPORT_STATIC_ALLOCATION == 1 ) // configSUPPORT_DYNAMIC_ALLOCATION == 0
 744:Middlewares/Third_Party/FreeRTOS/Source/CMSIS_RTOS/cmsis_os.c ****   if(count == 1) {
 745:Middlewares/Third_Party/FreeRTOS/Source/CMSIS_RTOS/cmsis_os.c ****     return xSemaphoreCreateBinaryStatic( semaphore_def->controlblock );
 746:Middlewares/Third_Party/FreeRTOS/Source/CMSIS_RTOS/cmsis_os.c ****   }
 747:Middlewares/Third_Party/FreeRTOS/Source/CMSIS_RTOS/cmsis_os.c ****   else
 748:Middlewares/Third_Party/FreeRTOS/Source/CMSIS_RTOS/cmsis_os.c ****   {
 749:Middlewares/Third_Party/FreeRTOS/Source/CMSIS_RTOS/cmsis_os.c **** #if (configUSE_COUNTING_SEMAPHORES == 1 )
 750:Middlewares/Third_Party/FreeRTOS/Source/CMSIS_RTOS/cmsis_os.c ****       return xSemaphoreCreateCountingStatic( count, count, semaphore_def->controlblock );
 751:Middlewares/Third_Party/FreeRTOS/Source/CMSIS_RTOS/cmsis_os.c **** #else
 752:Middlewares/Third_Party/FreeRTOS/Source/CMSIS_RTOS/cmsis_os.c ****       return NULL;
 753:Middlewares/Third_Party/FreeRTOS/Source/CMSIS_RTOS/cmsis_os.c **** #endif    
 754:Middlewares/Third_Party/FreeRTOS/Source/CMSIS_RTOS/cmsis_os.c ****   }
 755:Middlewares/Third_Party/FreeRTOS/Source/CMSIS_RTOS/cmsis_os.c **** #else  // configSUPPORT_STATIC_ALLOCATION == 0  && configSUPPORT_DYNAMIC_ALLOCATION == 1
 756:Middlewares/Third_Party/FreeRTOS/Source/CMSIS_RTOS/cmsis_os.c ****   osSemaphoreId sema;
 757:Middlewares/Third_Party/FreeRTOS/Source/CMSIS_RTOS/cmsis_os.c ****  
 758:Middlewares/Third_Party/FreeRTOS/Source/CMSIS_RTOS/cmsis_os.c ****   if (count == 1) {
 759:Middlewares/Third_Party/FreeRTOS/Source/CMSIS_RTOS/cmsis_os.c ****     vSemaphoreCreateBinary(sema);
 760:Middlewares/Third_Party/FreeRTOS/Source/CMSIS_RTOS/cmsis_os.c ****     return sema;
 761:Middlewares/Third_Party/FreeRTOS/Source/CMSIS_RTOS/cmsis_os.c ****   }
 762:Middlewares/Third_Party/FreeRTOS/Source/CMSIS_RTOS/cmsis_os.c ****   else {
 763:Middlewares/Third_Party/FreeRTOS/Source/CMSIS_RTOS/cmsis_os.c **** #if (configUSE_COUNTING_SEMAPHORES == 1 )	
 764:Middlewares/Third_Party/FreeRTOS/Source/CMSIS_RTOS/cmsis_os.c ****     return xSemaphoreCreateCounting(count, count);
 765:Middlewares/Third_Party/FreeRTOS/Source/CMSIS_RTOS/cmsis_os.c **** #else
ARM GAS  /tmp/ccYrIPsY.s 			page 42


 766:Middlewares/Third_Party/FreeRTOS/Source/CMSIS_RTOS/cmsis_os.c ****     return NULL;
 767:Middlewares/Third_Party/FreeRTOS/Source/CMSIS_RTOS/cmsis_os.c **** #endif
 768:Middlewares/Third_Party/FreeRTOS/Source/CMSIS_RTOS/cmsis_os.c ****   }
 769:Middlewares/Third_Party/FreeRTOS/Source/CMSIS_RTOS/cmsis_os.c **** #endif
 770:Middlewares/Third_Party/FreeRTOS/Source/CMSIS_RTOS/cmsis_os.c **** }
 1355              		.loc 1 770 1 view .LVU301
 1356 000e 2046     		mov	r0, r4
 1357 0010 02B0     		add	sp, sp, #8
 1358              	.LCFI32:
 1359              		.cfi_remember_state
 1360              		.cfi_def_cfa_offset 8
 1361              		@ sp needed
 1362 0012 10BD     		pop	{r4, pc}
 1363              	.LVL96:
 1364              	.L103:
 1365              	.LCFI33:
 1366              		.cfi_restore_state
 720:Middlewares/Third_Party/FreeRTOS/Source/CMSIS_RTOS/cmsis_os.c ****       return xSemaphoreCreateBinaryStatic( semaphore_def->controlblock );
 1367              		.loc 1 720 7 is_stmt 1 view .LVU302
 720:Middlewares/Third_Party/FreeRTOS/Source/CMSIS_RTOS/cmsis_os.c ****       return xSemaphoreCreateBinaryStatic( semaphore_def->controlblock );
 1368              		.loc 1 720 14 is_stmt 0 view .LVU303
 1369 0014 0323     		movs	r3, #3
 1370 0016 0093     		str	r3, [sp]
 1371 0018 2346     		mov	r3, r4
 1372 001a 0022     		movs	r2, #0
 1373 001c 1146     		mov	r1, r2
 1374              	.LVL97:
 720:Middlewares/Third_Party/FreeRTOS/Source/CMSIS_RTOS/cmsis_os.c ****       return xSemaphoreCreateBinaryStatic( semaphore_def->controlblock );
 1375              		.loc 1 720 14 view .LVU304
 1376 001e 0120     		movs	r0, #1
 1377              	.LVL98:
 720:Middlewares/Third_Party/FreeRTOS/Source/CMSIS_RTOS/cmsis_os.c ****       return xSemaphoreCreateBinaryStatic( semaphore_def->controlblock );
 1378              		.loc 1 720 14 view .LVU305
 1379 0020 FFF7FEFF 		bl	xQueueGenericCreateStatic
 1380              	.LVL99:
 1381 0024 0446     		mov	r4, r0
 1382 0026 F2E7     		b	.L97
 1383              	.LVL100:
 1384              	.L98:
 731:Middlewares/Third_Party/FreeRTOS/Source/CMSIS_RTOS/cmsis_os.c ****       vSemaphoreCreateBinary(sema);
 1385              		.loc 1 731 5 is_stmt 1 view .LVU306
 731:Middlewares/Third_Party/FreeRTOS/Source/CMSIS_RTOS/cmsis_os.c ****       vSemaphoreCreateBinary(sema);
 1386              		.loc 1 731 8 is_stmt 0 view .LVU307
 1387 0028 0129     		cmp	r1, #1
 1388 002a F0D1     		bne	.L97
 732:Middlewares/Third_Party/FreeRTOS/Source/CMSIS_RTOS/cmsis_os.c ****       return sema;
 1389              		.loc 1 732 7 is_stmt 1 view .LVU308
 1390 002c 0322     		movs	r2, #3
 1391 002e 0021     		movs	r1, #0
 1392              	.LVL101:
 732:Middlewares/Third_Party/FreeRTOS/Source/CMSIS_RTOS/cmsis_os.c ****       return sema;
 1393              		.loc 1 732 7 is_stmt 0 view .LVU309
 1394 0030 0120     		movs	r0, #1
 1395              	.LVL102:
 732:Middlewares/Third_Party/FreeRTOS/Source/CMSIS_RTOS/cmsis_os.c ****       return sema;
 1396              		.loc 1 732 7 view .LVU310
 1397 0032 FFF7FEFF 		bl	xQueueGenericCreate
ARM GAS  /tmp/ccYrIPsY.s 			page 43


 1398              	.LVL103:
 732:Middlewares/Third_Party/FreeRTOS/Source/CMSIS_RTOS/cmsis_os.c ****       return sema;
 1399              		.loc 1 732 7 is_stmt 1 view .LVU311
 1400 0036 0446     		mov	r4, r0
 1401 0038 0028     		cmp	r0, #0
 1402 003a E8D0     		beq	.L97
 732:Middlewares/Third_Party/FreeRTOS/Source/CMSIS_RTOS/cmsis_os.c ****       return sema;
 1403              		.loc 1 732 7 discriminator 1 view .LVU312
 1404 003c 0023     		movs	r3, #0
 1405 003e 1A46     		mov	r2, r3
 1406 0040 1946     		mov	r1, r3
 1407 0042 FFF7FEFF 		bl	xQueueGenericSend
 1408              	.LVL104:
 732:Middlewares/Third_Party/FreeRTOS/Source/CMSIS_RTOS/cmsis_os.c ****       return sema;
 1409              		.loc 1 732 35 discriminator 1 view .LVU313
 733:Middlewares/Third_Party/FreeRTOS/Source/CMSIS_RTOS/cmsis_os.c ****     }
 1410              		.loc 1 733 7 discriminator 1 view .LVU314
 733:Middlewares/Third_Party/FreeRTOS/Source/CMSIS_RTOS/cmsis_os.c ****     }
 1411              		.loc 1 733 14 is_stmt 0 discriminator 1 view .LVU315
 1412 0046 E2E7     		b	.L97
 1413              		.cfi_endproc
 1414              	.LFE130:
 1416              		.section	.text.osSemaphoreWait,"ax",%progbits
 1417              		.align	1
 1418              		.global	osSemaphoreWait
 1419              		.syntax unified
 1420              		.thumb
 1421              		.thumb_func
 1422              		.fpu fpv4-sp-d16
 1424              	osSemaphoreWait:
 1425              	.LVL105:
 1426              	.LFB131:
 771:Middlewares/Third_Party/FreeRTOS/Source/CMSIS_RTOS/cmsis_os.c **** 
 772:Middlewares/Third_Party/FreeRTOS/Source/CMSIS_RTOS/cmsis_os.c **** /**
 773:Middlewares/Third_Party/FreeRTOS/Source/CMSIS_RTOS/cmsis_os.c **** * @brief Wait until a Semaphore token becomes available
 774:Middlewares/Third_Party/FreeRTOS/Source/CMSIS_RTOS/cmsis_os.c **** * @param  semaphore_id  semaphore object referenced with \ref osSemaphore.
 775:Middlewares/Third_Party/FreeRTOS/Source/CMSIS_RTOS/cmsis_os.c **** * @param  millisec      timeout value or 0 in case of no time-out.
 776:Middlewares/Third_Party/FreeRTOS/Source/CMSIS_RTOS/cmsis_os.c **** * @retval  number of available tokens, or -1 in case of incorrect parameters.
 777:Middlewares/Third_Party/FreeRTOS/Source/CMSIS_RTOS/cmsis_os.c **** * @note   MUST REMAIN UNCHANGED: \b osSemaphoreWait shall be consistent in every CMSIS-RTOS.
 778:Middlewares/Third_Party/FreeRTOS/Source/CMSIS_RTOS/cmsis_os.c **** */
 779:Middlewares/Third_Party/FreeRTOS/Source/CMSIS_RTOS/cmsis_os.c **** int32_t osSemaphoreWait (osSemaphoreId semaphore_id, uint32_t millisec)
 780:Middlewares/Third_Party/FreeRTOS/Source/CMSIS_RTOS/cmsis_os.c **** {
 1427              		.loc 1 780 1 is_stmt 1 view -0
 1428              		.cfi_startproc
 1429              		@ args = 0, pretend = 0, frame = 8
 1430              		@ frame_needed = 0, uses_anonymous_args = 0
 1431              		.loc 1 780 1 is_stmt 0 view .LVU317
 1432 0000 70B5     		push	{r4, r5, r6, lr}
 1433              	.LCFI34:
 1434              		.cfi_def_cfa_offset 16
 1435              		.cfi_offset 4, -16
 1436              		.cfi_offset 5, -12
 1437              		.cfi_offset 6, -8
 1438              		.cfi_offset 14, -4
 1439 0002 82B0     		sub	sp, sp, #8
 1440              	.LCFI35:
 1441              		.cfi_def_cfa_offset 24
ARM GAS  /tmp/ccYrIPsY.s 			page 44


 781:Middlewares/Third_Party/FreeRTOS/Source/CMSIS_RTOS/cmsis_os.c ****   TickType_t ticks;
 1442              		.loc 1 781 3 is_stmt 1 view .LVU318
 782:Middlewares/Third_Party/FreeRTOS/Source/CMSIS_RTOS/cmsis_os.c ****   portBASE_TYPE taskWoken = pdFALSE;  
 1443              		.loc 1 782 3 view .LVU319
 1444              		.loc 1 782 17 is_stmt 0 view .LVU320
 1445 0004 0023     		movs	r3, #0
 1446 0006 0193     		str	r3, [sp, #4]
 783:Middlewares/Third_Party/FreeRTOS/Source/CMSIS_RTOS/cmsis_os.c ****   
 784:Middlewares/Third_Party/FreeRTOS/Source/CMSIS_RTOS/cmsis_os.c ****   
 785:Middlewares/Third_Party/FreeRTOS/Source/CMSIS_RTOS/cmsis_os.c ****   if (semaphore_id == NULL) {
 1447              		.loc 1 785 3 is_stmt 1 view .LVU321
 1448              		.loc 1 785 6 is_stmt 0 view .LVU322
 1449 0008 78B3     		cbz	r0, .L108
 1450 000a 0C46     		mov	r4, r1
 1451 000c 0646     		mov	r6, r0
 786:Middlewares/Third_Party/FreeRTOS/Source/CMSIS_RTOS/cmsis_os.c ****     return osErrorParameter;
 787:Middlewares/Third_Party/FreeRTOS/Source/CMSIS_RTOS/cmsis_os.c ****   }
 788:Middlewares/Third_Party/FreeRTOS/Source/CMSIS_RTOS/cmsis_os.c ****   
 789:Middlewares/Third_Party/FreeRTOS/Source/CMSIS_RTOS/cmsis_os.c ****   ticks = 0;
 1452              		.loc 1 789 3 is_stmt 1 view .LVU323
 1453              	.LVL106:
 790:Middlewares/Third_Party/FreeRTOS/Source/CMSIS_RTOS/cmsis_os.c ****   if (millisec == osWaitForever) {
 1454              		.loc 1 790 3 view .LVU324
 1455              		.loc 1 790 6 is_stmt 0 view .LVU325
 1456 000e B1F1FF3F 		cmp	r1, #-1
 1457 0012 08D0     		beq	.L106
 791:Middlewares/Third_Party/FreeRTOS/Source/CMSIS_RTOS/cmsis_os.c ****     ticks = portMAX_DELAY;
 792:Middlewares/Third_Party/FreeRTOS/Source/CMSIS_RTOS/cmsis_os.c ****   }
 793:Middlewares/Third_Party/FreeRTOS/Source/CMSIS_RTOS/cmsis_os.c ****   else if (millisec != 0) {
 1458              		.loc 1 793 8 is_stmt 1 view .LVU326
 1459              		.loc 1 793 11 is_stmt 0 view .LVU327
 1460 0014 39B1     		cbz	r1, .L106
 794:Middlewares/Third_Party/FreeRTOS/Source/CMSIS_RTOS/cmsis_os.c ****     ticks = millisec / portTICK_PERIOD_MS;
 1461              		.loc 1 794 5 is_stmt 1 view .LVU328
 1462              		.loc 1 794 11 is_stmt 0 view .LVU329
 1463 0016 A3F13333 		sub	r3, r3, #858993459
 1464 001a A3FB0123 		umull	r2, r3, r3, r1
 1465 001e DB08     		lsrs	r3, r3, #3
 1466              	.LVL107:
 795:Middlewares/Third_Party/FreeRTOS/Source/CMSIS_RTOS/cmsis_os.c ****     if (ticks == 0) {
 1467              		.loc 1 795 5 is_stmt 1 view .LVU330
 1468              		.loc 1 795 8 is_stmt 0 view .LVU331
 1469 0020 0929     		cmp	r1, #9
 1470 0022 17D9     		bls	.L109
 794:Middlewares/Third_Party/FreeRTOS/Source/CMSIS_RTOS/cmsis_os.c ****     ticks = millisec / portTICK_PERIOD_MS;
 1471              		.loc 1 794 11 view .LVU332
 1472 0024 1C46     		mov	r4, r3
 1473              	.LVL108:
 1474              	.L106:
 796:Middlewares/Third_Party/FreeRTOS/Source/CMSIS_RTOS/cmsis_os.c ****       ticks = 1;
 797:Middlewares/Third_Party/FreeRTOS/Source/CMSIS_RTOS/cmsis_os.c ****     }
 798:Middlewares/Third_Party/FreeRTOS/Source/CMSIS_RTOS/cmsis_os.c ****   }
 799:Middlewares/Third_Party/FreeRTOS/Source/CMSIS_RTOS/cmsis_os.c ****   
 800:Middlewares/Third_Party/FreeRTOS/Source/CMSIS_RTOS/cmsis_os.c ****   if (inHandlerMode()) {
 1475              		.loc 1 800 3 is_stmt 1 view .LVU333
 1476              		.loc 1 800 7 is_stmt 0 view .LVU334
 1477 0026 FFF7FEFF 		bl	inHandlerMode
ARM GAS  /tmp/ccYrIPsY.s 			page 45


 1478              	.LVL109:
 1479              		.loc 1 800 6 view .LVU335
 1480 002a 0546     		mov	r5, r0
 1481 002c A0B1     		cbz	r0, .L107
 801:Middlewares/Third_Party/FreeRTOS/Source/CMSIS_RTOS/cmsis_os.c ****     if (xSemaphoreTakeFromISR(semaphore_id, &taskWoken) != pdTRUE) {
 1482              		.loc 1 801 5 is_stmt 1 view .LVU336
 1483              		.loc 1 801 9 is_stmt 0 view .LVU337
 1484 002e 01AA     		add	r2, sp, #4
 1485 0030 0021     		movs	r1, #0
 1486 0032 3046     		mov	r0, r6
 1487 0034 FFF7FEFF 		bl	xQueueReceiveFromISR
 1488              	.LVL110:
 1489              		.loc 1 801 8 view .LVU338
 1490 0038 0128     		cmp	r0, #1
 1491 003a 18D1     		bne	.L110
 802:Middlewares/Third_Party/FreeRTOS/Source/CMSIS_RTOS/cmsis_os.c ****       return osErrorOS;
 803:Middlewares/Third_Party/FreeRTOS/Source/CMSIS_RTOS/cmsis_os.c ****     }
 804:Middlewares/Third_Party/FreeRTOS/Source/CMSIS_RTOS/cmsis_os.c **** 	portEND_SWITCHING_ISR(taskWoken);
 1492              		.loc 1 804 2 is_stmt 1 view .LVU339
 1493 003c 019D     		ldr	r5, [sp, #4]
 1494 003e 8DB1     		cbz	r5, .L104
 1495              		.loc 1 804 2 discriminator 1 view .LVU340
 1496 0040 0D4B     		ldr	r3, .L114
 1497 0042 4FF08052 		mov	r2, #268435456
 1498 0046 1A60     		str	r2, [r3]
 1499              		.loc 1 804 2 discriminator 1 view .LVU341
 1500              		.syntax unified
 1501              	@ 804 "Middlewares/Third_Party/FreeRTOS/Source/CMSIS_RTOS/cmsis_os.c" 1
 1502 0048 BFF34F8F 		dsb
 1503              	@ 0 "" 2
 1504              		.loc 1 804 2 discriminator 1 view .LVU342
 1505              	@ 804 "Middlewares/Third_Party/FreeRTOS/Source/CMSIS_RTOS/cmsis_os.c" 1
 1506 004c BFF36F8F 		isb
 1507              	@ 0 "" 2
 805:Middlewares/Third_Party/FreeRTOS/Source/CMSIS_RTOS/cmsis_os.c ****   }  
 806:Middlewares/Third_Party/FreeRTOS/Source/CMSIS_RTOS/cmsis_os.c ****   else if (xSemaphoreTake(semaphore_id, ticks) != pdTRUE) {
 807:Middlewares/Third_Party/FreeRTOS/Source/CMSIS_RTOS/cmsis_os.c ****     return osErrorOS;
 808:Middlewares/Third_Party/FreeRTOS/Source/CMSIS_RTOS/cmsis_os.c ****   }
 809:Middlewares/Third_Party/FreeRTOS/Source/CMSIS_RTOS/cmsis_os.c ****   
 810:Middlewares/Third_Party/FreeRTOS/Source/CMSIS_RTOS/cmsis_os.c ****   return osOK;
 1508              		.loc 1 810 10 is_stmt 0 discriminator 1 view .LVU343
 1509              		.thumb
 1510              		.syntax unified
 1511 0050 0025     		movs	r5, #0
 1512 0052 07E0     		b	.L104
 1513              	.LVL111:
 1514              	.L109:
 796:Middlewares/Third_Party/FreeRTOS/Source/CMSIS_RTOS/cmsis_os.c ****     }
 1515              		.loc 1 796 13 view .LVU344
 1516 0054 0124     		movs	r4, #1
 1517 0056 E6E7     		b	.L106
 1518              	.LVL112:
 1519              	.L107:
 806:Middlewares/Third_Party/FreeRTOS/Source/CMSIS_RTOS/cmsis_os.c ****     return osErrorOS;
 1520              		.loc 1 806 8 is_stmt 1 view .LVU345
 806:Middlewares/Third_Party/FreeRTOS/Source/CMSIS_RTOS/cmsis_os.c ****     return osErrorOS;
 1521              		.loc 1 806 12 is_stmt 0 view .LVU346
ARM GAS  /tmp/ccYrIPsY.s 			page 46


 1522 0058 2146     		mov	r1, r4
 1523 005a 3046     		mov	r0, r6
 1524 005c FFF7FEFF 		bl	xQueueSemaphoreTake
 1525              	.LVL113:
 806:Middlewares/Third_Party/FreeRTOS/Source/CMSIS_RTOS/cmsis_os.c ****     return osErrorOS;
 1526              		.loc 1 806 11 view .LVU347
 1527 0060 0128     		cmp	r0, #1
 1528 0062 06D1     		bne	.L113
 1529              	.LVL114:
 1530              	.L104:
 811:Middlewares/Third_Party/FreeRTOS/Source/CMSIS_RTOS/cmsis_os.c **** }
 1531              		.loc 1 811 1 view .LVU348
 1532 0064 2846     		mov	r0, r5
 1533 0066 02B0     		add	sp, sp, #8
 1534              	.LCFI36:
 1535              		.cfi_remember_state
 1536              		.cfi_def_cfa_offset 16
 1537              		@ sp needed
 1538 0068 70BD     		pop	{r4, r5, r6, pc}
 1539              	.LVL115:
 1540              	.L108:
 1541              	.LCFI37:
 1542              		.cfi_restore_state
 786:Middlewares/Third_Party/FreeRTOS/Source/CMSIS_RTOS/cmsis_os.c ****   }
 1543              		.loc 1 786 12 view .LVU349
 1544 006a 8025     		movs	r5, #128
 1545 006c FAE7     		b	.L104
 1546              	.LVL116:
 1547              	.L110:
 802:Middlewares/Third_Party/FreeRTOS/Source/CMSIS_RTOS/cmsis_os.c ****     }
 1548              		.loc 1 802 14 view .LVU350
 1549 006e FF25     		movs	r5, #255
 1550 0070 F8E7     		b	.L104
 1551              	.L113:
 807:Middlewares/Third_Party/FreeRTOS/Source/CMSIS_RTOS/cmsis_os.c ****   }
 1552              		.loc 1 807 12 view .LVU351
 1553 0072 FF25     		movs	r5, #255
 1554 0074 F6E7     		b	.L104
 1555              	.L115:
 1556 0076 00BF     		.align	2
 1557              	.L114:
 1558 0078 04ED00E0 		.word	-536810236
 1559              		.cfi_endproc
 1560              	.LFE131:
 1562              		.section	.text.osSemaphoreRelease,"ax",%progbits
 1563              		.align	1
 1564              		.global	osSemaphoreRelease
 1565              		.syntax unified
 1566              		.thumb
 1567              		.thumb_func
 1568              		.fpu fpv4-sp-d16
 1570              	osSemaphoreRelease:
 1571              	.LVL117:
 1572              	.LFB132:
 812:Middlewares/Third_Party/FreeRTOS/Source/CMSIS_RTOS/cmsis_os.c **** 
 813:Middlewares/Third_Party/FreeRTOS/Source/CMSIS_RTOS/cmsis_os.c **** /**
 814:Middlewares/Third_Party/FreeRTOS/Source/CMSIS_RTOS/cmsis_os.c **** * @brief Release a Semaphore token
ARM GAS  /tmp/ccYrIPsY.s 			page 47


 815:Middlewares/Third_Party/FreeRTOS/Source/CMSIS_RTOS/cmsis_os.c **** * @param  semaphore_id  semaphore object referenced with \ref osSemaphore.
 816:Middlewares/Third_Party/FreeRTOS/Source/CMSIS_RTOS/cmsis_os.c **** * @retval  status code that indicates the execution status of the function.
 817:Middlewares/Third_Party/FreeRTOS/Source/CMSIS_RTOS/cmsis_os.c **** * @note   MUST REMAIN UNCHANGED: \b osSemaphoreRelease shall be consistent in every CMSIS-RTOS.
 818:Middlewares/Third_Party/FreeRTOS/Source/CMSIS_RTOS/cmsis_os.c **** */
 819:Middlewares/Third_Party/FreeRTOS/Source/CMSIS_RTOS/cmsis_os.c **** osStatus osSemaphoreRelease (osSemaphoreId semaphore_id)
 820:Middlewares/Third_Party/FreeRTOS/Source/CMSIS_RTOS/cmsis_os.c **** {
 1573              		.loc 1 820 1 is_stmt 1 view -0
 1574              		.cfi_startproc
 1575              		@ args = 0, pretend = 0, frame = 8
 1576              		@ frame_needed = 0, uses_anonymous_args = 0
 1577              		.loc 1 820 1 is_stmt 0 view .LVU353
 1578 0000 10B5     		push	{r4, lr}
 1579              	.LCFI38:
 1580              		.cfi_def_cfa_offset 8
 1581              		.cfi_offset 4, -8
 1582              		.cfi_offset 14, -4
 1583 0002 82B0     		sub	sp, sp, #8
 1584              	.LCFI39:
 1585              		.cfi_def_cfa_offset 16
 1586 0004 0446     		mov	r4, r0
 821:Middlewares/Third_Party/FreeRTOS/Source/CMSIS_RTOS/cmsis_os.c ****   osStatus result = osOK;
 1587              		.loc 1 821 3 is_stmt 1 view .LVU354
 1588              	.LVL118:
 822:Middlewares/Third_Party/FreeRTOS/Source/CMSIS_RTOS/cmsis_os.c ****   portBASE_TYPE taskWoken = pdFALSE;
 1589              		.loc 1 822 3 view .LVU355
 1590              		.loc 1 822 17 is_stmt 0 view .LVU356
 1591 0006 0023     		movs	r3, #0
 1592 0008 0193     		str	r3, [sp, #4]
 823:Middlewares/Third_Party/FreeRTOS/Source/CMSIS_RTOS/cmsis_os.c ****   
 824:Middlewares/Third_Party/FreeRTOS/Source/CMSIS_RTOS/cmsis_os.c ****   
 825:Middlewares/Third_Party/FreeRTOS/Source/CMSIS_RTOS/cmsis_os.c ****   if (inHandlerMode()) {
 1593              		.loc 1 825 3 is_stmt 1 view .LVU357
 1594              		.loc 1 825 7 is_stmt 0 view .LVU358
 1595 000a FFF7FEFF 		bl	inHandlerMode
 1596              	.LVL119:
 1597              		.loc 1 825 6 view .LVU359
 1598 000e 88B1     		cbz	r0, .L117
 826:Middlewares/Third_Party/FreeRTOS/Source/CMSIS_RTOS/cmsis_os.c ****     if (xSemaphoreGiveFromISR(semaphore_id, &taskWoken) != pdTRUE) {
 1599              		.loc 1 826 5 is_stmt 1 view .LVU360
 1600              		.loc 1 826 9 is_stmt 0 view .LVU361
 1601 0010 01A9     		add	r1, sp, #4
 1602 0012 2046     		mov	r0, r4
 1603 0014 FFF7FEFF 		bl	xQueueGiveFromISR
 1604              	.LVL120:
 1605              		.loc 1 826 8 view .LVU362
 1606 0018 0128     		cmp	r0, #1
 1607 001a 18D1     		bne	.L119
 827:Middlewares/Third_Party/FreeRTOS/Source/CMSIS_RTOS/cmsis_os.c ****       return osErrorOS;
 828:Middlewares/Third_Party/FreeRTOS/Source/CMSIS_RTOS/cmsis_os.c ****     }
 829:Middlewares/Third_Party/FreeRTOS/Source/CMSIS_RTOS/cmsis_os.c ****     portEND_SWITCHING_ISR(taskWoken);
 1608              		.loc 1 829 5 is_stmt 1 view .LVU363
 1609 001c 019B     		ldr	r3, [sp, #4]
 1610 001e C3B1     		cbz	r3, .L120
 1611              		.loc 1 829 5 discriminator 1 view .LVU364
 1612 0020 0D4B     		ldr	r3, .L124
 1613 0022 4FF08052 		mov	r2, #268435456
 1614 0026 1A60     		str	r2, [r3]
ARM GAS  /tmp/ccYrIPsY.s 			page 48


 1615              		.loc 1 829 5 discriminator 1 view .LVU365
 1616              		.syntax unified
 1617              	@ 829 "Middlewares/Third_Party/FreeRTOS/Source/CMSIS_RTOS/cmsis_os.c" 1
 1618 0028 BFF34F8F 		dsb
 1619              	@ 0 "" 2
 1620              		.loc 1 829 5 discriminator 1 view .LVU366
 1621              	@ 829 "Middlewares/Third_Party/FreeRTOS/Source/CMSIS_RTOS/cmsis_os.c" 1
 1622 002c BFF36F8F 		isb
 1623              	@ 0 "" 2
 821:Middlewares/Third_Party/FreeRTOS/Source/CMSIS_RTOS/cmsis_os.c ****   portBASE_TYPE taskWoken = pdFALSE;
 1624              		.loc 1 821 12 is_stmt 0 discriminator 1 view .LVU367
 1625              		.thumb
 1626              		.syntax unified
 1627 0030 0020     		movs	r0, #0
 1628 0032 08E0     		b	.L116
 1629              	.L117:
 830:Middlewares/Third_Party/FreeRTOS/Source/CMSIS_RTOS/cmsis_os.c ****   }
 831:Middlewares/Third_Party/FreeRTOS/Source/CMSIS_RTOS/cmsis_os.c ****   else {
 832:Middlewares/Third_Party/FreeRTOS/Source/CMSIS_RTOS/cmsis_os.c ****     if (xSemaphoreGive(semaphore_id) != pdTRUE) {
 1630              		.loc 1 832 5 is_stmt 1 view .LVU368
 1631              		.loc 1 832 9 is_stmt 0 view .LVU369
 1632 0034 0023     		movs	r3, #0
 1633 0036 1A46     		mov	r2, r3
 1634 0038 1946     		mov	r1, r3
 1635 003a 2046     		mov	r0, r4
 1636 003c FFF7FEFF 		bl	xQueueGenericSend
 1637              	.LVL121:
 1638              		.loc 1 832 8 view .LVU370
 1639 0040 0128     		cmp	r0, #1
 1640 0042 02D0     		beq	.L123
 833:Middlewares/Third_Party/FreeRTOS/Source/CMSIS_RTOS/cmsis_os.c ****       result = osErrorOS;
 1641              		.loc 1 833 14 view .LVU371
 1642 0044 FF20     		movs	r0, #255
 1643              	.LVL122:
 1644              	.L116:
 834:Middlewares/Third_Party/FreeRTOS/Source/CMSIS_RTOS/cmsis_os.c ****     }
 835:Middlewares/Third_Party/FreeRTOS/Source/CMSIS_RTOS/cmsis_os.c ****   }
 836:Middlewares/Third_Party/FreeRTOS/Source/CMSIS_RTOS/cmsis_os.c ****   
 837:Middlewares/Third_Party/FreeRTOS/Source/CMSIS_RTOS/cmsis_os.c ****   return result;
 838:Middlewares/Third_Party/FreeRTOS/Source/CMSIS_RTOS/cmsis_os.c **** }
 1645              		.loc 1 838 1 view .LVU372
 1646 0046 02B0     		add	sp, sp, #8
 1647              	.LCFI40:
 1648              		.cfi_remember_state
 1649              		.cfi_def_cfa_offset 8
 1650              		@ sp needed
 1651 0048 10BD     		pop	{r4, pc}
 1652              	.LVL123:
 1653              	.L123:
 1654              	.LCFI41:
 1655              		.cfi_restore_state
 821:Middlewares/Third_Party/FreeRTOS/Source/CMSIS_RTOS/cmsis_os.c ****   portBASE_TYPE taskWoken = pdFALSE;
 1656              		.loc 1 821 12 view .LVU373
 1657 004a 0020     		movs	r0, #0
 1658 004c FBE7     		b	.L116
 1659              	.L119:
 827:Middlewares/Third_Party/FreeRTOS/Source/CMSIS_RTOS/cmsis_os.c ****     }
ARM GAS  /tmp/ccYrIPsY.s 			page 49


 1660              		.loc 1 827 14 view .LVU374
 1661 004e FF20     		movs	r0, #255
 1662 0050 F9E7     		b	.L116
 1663              	.L120:
 821:Middlewares/Third_Party/FreeRTOS/Source/CMSIS_RTOS/cmsis_os.c ****   portBASE_TYPE taskWoken = pdFALSE;
 1664              		.loc 1 821 12 view .LVU375
 1665 0052 0020     		movs	r0, #0
 1666 0054 F7E7     		b	.L116
 1667              	.L125:
 1668 0056 00BF     		.align	2
 1669              	.L124:
 1670 0058 04ED00E0 		.word	-536810236
 1671              		.cfi_endproc
 1672              	.LFE132:
 1674              		.section	.text.osSemaphoreDelete,"ax",%progbits
 1675              		.align	1
 1676              		.global	osSemaphoreDelete
 1677              		.syntax unified
 1678              		.thumb
 1679              		.thumb_func
 1680              		.fpu fpv4-sp-d16
 1682              	osSemaphoreDelete:
 1683              	.LVL124:
 1684              	.LFB133:
 839:Middlewares/Third_Party/FreeRTOS/Source/CMSIS_RTOS/cmsis_os.c **** 
 840:Middlewares/Third_Party/FreeRTOS/Source/CMSIS_RTOS/cmsis_os.c **** /**
 841:Middlewares/Third_Party/FreeRTOS/Source/CMSIS_RTOS/cmsis_os.c **** * @brief Delete a Semaphore
 842:Middlewares/Third_Party/FreeRTOS/Source/CMSIS_RTOS/cmsis_os.c **** * @param  semaphore_id  semaphore object referenced with \ref osSemaphore.
 843:Middlewares/Third_Party/FreeRTOS/Source/CMSIS_RTOS/cmsis_os.c **** * @retval  status code that indicates the execution status of the function.
 844:Middlewares/Third_Party/FreeRTOS/Source/CMSIS_RTOS/cmsis_os.c **** * @note   MUST REMAIN UNCHANGED: \b osSemaphoreDelete shall be consistent in every CMSIS-RTOS.
 845:Middlewares/Third_Party/FreeRTOS/Source/CMSIS_RTOS/cmsis_os.c **** */
 846:Middlewares/Third_Party/FreeRTOS/Source/CMSIS_RTOS/cmsis_os.c **** osStatus osSemaphoreDelete (osSemaphoreId semaphore_id)
 847:Middlewares/Third_Party/FreeRTOS/Source/CMSIS_RTOS/cmsis_os.c **** {
 1685              		.loc 1 847 1 is_stmt 1 view -0
 1686              		.cfi_startproc
 1687              		@ args = 0, pretend = 0, frame = 0
 1688              		@ frame_needed = 0, uses_anonymous_args = 0
 1689              		.loc 1 847 1 is_stmt 0 view .LVU377
 1690 0000 10B5     		push	{r4, lr}
 1691              	.LCFI42:
 1692              		.cfi_def_cfa_offset 8
 1693              		.cfi_offset 4, -8
 1694              		.cfi_offset 14, -4
 1695 0002 0446     		mov	r4, r0
 848:Middlewares/Third_Party/FreeRTOS/Source/CMSIS_RTOS/cmsis_os.c ****   if (inHandlerMode()) {
 1696              		.loc 1 848 3 is_stmt 1 view .LVU378
 1697              		.loc 1 848 7 is_stmt 0 view .LVU379
 1698 0004 FFF7FEFF 		bl	inHandlerMode
 1699              	.LVL125:
 1700              		.loc 1 848 6 view .LVU380
 1701 0008 20B9     		cbnz	r0, .L128
 849:Middlewares/Third_Party/FreeRTOS/Source/CMSIS_RTOS/cmsis_os.c ****     return osErrorISR;
 850:Middlewares/Third_Party/FreeRTOS/Source/CMSIS_RTOS/cmsis_os.c ****   }
 851:Middlewares/Third_Party/FreeRTOS/Source/CMSIS_RTOS/cmsis_os.c **** 
 852:Middlewares/Third_Party/FreeRTOS/Source/CMSIS_RTOS/cmsis_os.c ****   vSemaphoreDelete(semaphore_id);
 1702              		.loc 1 852 3 is_stmt 1 view .LVU381
 1703 000a 2046     		mov	r0, r4
ARM GAS  /tmp/ccYrIPsY.s 			page 50


 1704 000c FFF7FEFF 		bl	vQueueDelete
 1705              	.LVL126:
 853:Middlewares/Third_Party/FreeRTOS/Source/CMSIS_RTOS/cmsis_os.c **** 
 854:Middlewares/Third_Party/FreeRTOS/Source/CMSIS_RTOS/cmsis_os.c ****   return osOK; 
 1706              		.loc 1 854 3 view .LVU382
 1707              		.loc 1 854 10 is_stmt 0 view .LVU383
 1708 0010 0020     		movs	r0, #0
 1709              	.L126:
 855:Middlewares/Third_Party/FreeRTOS/Source/CMSIS_RTOS/cmsis_os.c **** }
 1710              		.loc 1 855 1 view .LVU384
 1711 0012 10BD     		pop	{r4, pc}
 1712              	.LVL127:
 1713              	.L128:
 849:Middlewares/Third_Party/FreeRTOS/Source/CMSIS_RTOS/cmsis_os.c ****     return osErrorISR;
 1714              		.loc 1 849 12 view .LVU385
 1715 0014 8220     		movs	r0, #130
 1716 0016 FCE7     		b	.L126
 1717              		.cfi_endproc
 1718              	.LFE133:
 1720              		.section	.text.osPoolCreate,"ax",%progbits
 1721              		.align	1
 1722              		.global	osPoolCreate
 1723              		.syntax unified
 1724              		.thumb
 1725              		.thumb_func
 1726              		.fpu fpv4-sp-d16
 1728              	osPoolCreate:
 1729              	.LVL128:
 1730              	.LFB134:
 856:Middlewares/Third_Party/FreeRTOS/Source/CMSIS_RTOS/cmsis_os.c **** 
 857:Middlewares/Third_Party/FreeRTOS/Source/CMSIS_RTOS/cmsis_os.c **** #endif    /* Use Semaphores */
 858:Middlewares/Third_Party/FreeRTOS/Source/CMSIS_RTOS/cmsis_os.c **** 
 859:Middlewares/Third_Party/FreeRTOS/Source/CMSIS_RTOS/cmsis_os.c **** /*******************   Memory Pool Management Functions  ***********************/
 860:Middlewares/Third_Party/FreeRTOS/Source/CMSIS_RTOS/cmsis_os.c **** 
 861:Middlewares/Third_Party/FreeRTOS/Source/CMSIS_RTOS/cmsis_os.c **** #if (defined (osFeature_Pool)  &&  (osFeature_Pool != 0)) 
 862:Middlewares/Third_Party/FreeRTOS/Source/CMSIS_RTOS/cmsis_os.c **** 
 863:Middlewares/Third_Party/FreeRTOS/Source/CMSIS_RTOS/cmsis_os.c **** //TODO
 864:Middlewares/Third_Party/FreeRTOS/Source/CMSIS_RTOS/cmsis_os.c **** //This is a primitive and inefficient wrapper around the existing FreeRTOS memory management.
 865:Middlewares/Third_Party/FreeRTOS/Source/CMSIS_RTOS/cmsis_os.c **** //A better implementation will have to modify heap_x.c!
 866:Middlewares/Third_Party/FreeRTOS/Source/CMSIS_RTOS/cmsis_os.c **** 
 867:Middlewares/Third_Party/FreeRTOS/Source/CMSIS_RTOS/cmsis_os.c **** 
 868:Middlewares/Third_Party/FreeRTOS/Source/CMSIS_RTOS/cmsis_os.c **** typedef struct os_pool_cb {
 869:Middlewares/Third_Party/FreeRTOS/Source/CMSIS_RTOS/cmsis_os.c ****   void *pool;
 870:Middlewares/Third_Party/FreeRTOS/Source/CMSIS_RTOS/cmsis_os.c ****   uint8_t *markers;
 871:Middlewares/Third_Party/FreeRTOS/Source/CMSIS_RTOS/cmsis_os.c ****   uint32_t pool_sz;
 872:Middlewares/Third_Party/FreeRTOS/Source/CMSIS_RTOS/cmsis_os.c ****   uint32_t item_sz;
 873:Middlewares/Third_Party/FreeRTOS/Source/CMSIS_RTOS/cmsis_os.c ****   uint32_t currentIndex;
 874:Middlewares/Third_Party/FreeRTOS/Source/CMSIS_RTOS/cmsis_os.c **** } os_pool_cb_t;
 875:Middlewares/Third_Party/FreeRTOS/Source/CMSIS_RTOS/cmsis_os.c **** 
 876:Middlewares/Third_Party/FreeRTOS/Source/CMSIS_RTOS/cmsis_os.c **** 
 877:Middlewares/Third_Party/FreeRTOS/Source/CMSIS_RTOS/cmsis_os.c **** /**
 878:Middlewares/Third_Party/FreeRTOS/Source/CMSIS_RTOS/cmsis_os.c **** * @brief Create and Initialize a memory pool
 879:Middlewares/Third_Party/FreeRTOS/Source/CMSIS_RTOS/cmsis_os.c **** * @param  pool_def      memory pool definition referenced with \ref osPool.
 880:Middlewares/Third_Party/FreeRTOS/Source/CMSIS_RTOS/cmsis_os.c **** * @retval  memory pool ID for reference by other functions or NULL in case of error.
 881:Middlewares/Third_Party/FreeRTOS/Source/CMSIS_RTOS/cmsis_os.c **** * @note   MUST REMAIN UNCHANGED: \b osPoolCreate shall be consistent in every CMSIS-RTOS.
 882:Middlewares/Third_Party/FreeRTOS/Source/CMSIS_RTOS/cmsis_os.c **** */
 883:Middlewares/Third_Party/FreeRTOS/Source/CMSIS_RTOS/cmsis_os.c **** osPoolId osPoolCreate (const osPoolDef_t *pool_def)
ARM GAS  /tmp/ccYrIPsY.s 			page 51


 884:Middlewares/Third_Party/FreeRTOS/Source/CMSIS_RTOS/cmsis_os.c **** {
 1731              		.loc 1 884 1 is_stmt 1 view -0
 1732              		.cfi_startproc
 1733              		@ args = 0, pretend = 0, frame = 0
 1734              		@ frame_needed = 0, uses_anonymous_args = 0
 1735              		.loc 1 884 1 is_stmt 0 view .LVU387
 1736 0000 F8B5     		push	{r3, r4, r5, r6, r7, lr}
 1737              	.LCFI43:
 1738              		.cfi_def_cfa_offset 24
 1739              		.cfi_offset 3, -24
 1740              		.cfi_offset 4, -20
 1741              		.cfi_offset 5, -16
 1742              		.cfi_offset 6, -12
 1743              		.cfi_offset 7, -8
 1744              		.cfi_offset 14, -4
 1745 0002 0446     		mov	r4, r0
 885:Middlewares/Third_Party/FreeRTOS/Source/CMSIS_RTOS/cmsis_os.c **** #if (configSUPPORT_DYNAMIC_ALLOCATION == 1)
 886:Middlewares/Third_Party/FreeRTOS/Source/CMSIS_RTOS/cmsis_os.c ****   osPoolId thePool;
 1746              		.loc 1 886 3 is_stmt 1 view .LVU388
 887:Middlewares/Third_Party/FreeRTOS/Source/CMSIS_RTOS/cmsis_os.c ****   int itemSize = 4 * ((pool_def->item_sz + 3) / 4);
 1747              		.loc 1 887 3 view .LVU389
 1748              		.loc 1 887 32 is_stmt 0 view .LVU390
 1749 0004 4368     		ldr	r3, [r0, #4]
 1750              		.loc 1 887 42 view .LVU391
 1751 0006 0333     		adds	r3, r3, #3
 1752              		.loc 1 887 7 view .LVU392
 1753 0008 23F00306 		bic	r6, r3, #3
 1754              	.LVL129:
 888:Middlewares/Third_Party/FreeRTOS/Source/CMSIS_RTOS/cmsis_os.c ****   uint32_t i;
 1755              		.loc 1 888 3 is_stmt 1 view .LVU393
 889:Middlewares/Third_Party/FreeRTOS/Source/CMSIS_RTOS/cmsis_os.c ****   
 890:Middlewares/Third_Party/FreeRTOS/Source/CMSIS_RTOS/cmsis_os.c ****   /* First have to allocate memory for the pool control block. */
 891:Middlewares/Third_Party/FreeRTOS/Source/CMSIS_RTOS/cmsis_os.c ****  thePool = pvPortMalloc(sizeof(os_pool_cb_t));
 1756              		.loc 1 891 2 view .LVU394
 1757              		.loc 1 891 12 is_stmt 0 view .LVU395
 1758 000c 1420     		movs	r0, #20
 1759              	.LVL130:
 1760              		.loc 1 891 12 view .LVU396
 1761 000e FFF7FEFF 		bl	pvPortMalloc
 1762              	.LVL131:
 892:Middlewares/Third_Party/FreeRTOS/Source/CMSIS_RTOS/cmsis_os.c **** 
 893:Middlewares/Third_Party/FreeRTOS/Source/CMSIS_RTOS/cmsis_os.c ****   
 894:Middlewares/Third_Party/FreeRTOS/Source/CMSIS_RTOS/cmsis_os.c ****   if (thePool) {
 1763              		.loc 1 894 3 is_stmt 1 view .LVU397
 1764              		.loc 1 894 6 is_stmt 0 view .LVU398
 1765 0012 0546     		mov	r5, r0
 1766 0014 D8B1     		cbz	r0, .L130
 895:Middlewares/Third_Party/FreeRTOS/Source/CMSIS_RTOS/cmsis_os.c ****     thePool->pool_sz = pool_def->pool_sz;
 1767              		.loc 1 895 5 is_stmt 1 view .LVU399
 1768              		.loc 1 895 32 is_stmt 0 view .LVU400
 1769 0016 2368     		ldr	r3, [r4]
 1770              		.loc 1 895 22 view .LVU401
 1771 0018 8360     		str	r3, [r0, #8]
 896:Middlewares/Third_Party/FreeRTOS/Source/CMSIS_RTOS/cmsis_os.c ****     thePool->item_sz = itemSize;
 1772              		.loc 1 896 5 is_stmt 1 view .LVU402
 1773              		.loc 1 896 22 is_stmt 0 view .LVU403
 1774 001a C660     		str	r6, [r0, #12]
ARM GAS  /tmp/ccYrIPsY.s 			page 52


 897:Middlewares/Third_Party/FreeRTOS/Source/CMSIS_RTOS/cmsis_os.c ****     thePool->currentIndex = 0;
 1775              		.loc 1 897 5 is_stmt 1 view .LVU404
 1776              		.loc 1 897 27 is_stmt 0 view .LVU405
 1777 001c 0023     		movs	r3, #0
 1778 001e 0361     		str	r3, [r0, #16]
 898:Middlewares/Third_Party/FreeRTOS/Source/CMSIS_RTOS/cmsis_os.c ****     
 899:Middlewares/Third_Party/FreeRTOS/Source/CMSIS_RTOS/cmsis_os.c ****     /* Memory for markers */
 900:Middlewares/Third_Party/FreeRTOS/Source/CMSIS_RTOS/cmsis_os.c ****     thePool->markers = pvPortMalloc(pool_def->pool_sz);
 1779              		.loc 1 900 5 is_stmt 1 view .LVU406
 1780              		.loc 1 900 24 is_stmt 0 view .LVU407
 1781 0020 2068     		ldr	r0, [r4]
 1782              	.LVL132:
 1783              		.loc 1 900 24 view .LVU408
 1784 0022 FFF7FEFF 		bl	pvPortMalloc
 1785              	.LVL133:
 1786 0026 0746     		mov	r7, r0
 1787              		.loc 1 900 22 view .LVU409
 1788 0028 6860     		str	r0, [r5, #4]
 901:Middlewares/Third_Party/FreeRTOS/Source/CMSIS_RTOS/cmsis_os.c ****    
 902:Middlewares/Third_Party/FreeRTOS/Source/CMSIS_RTOS/cmsis_os.c ****     if (thePool->markers) {
 1789              		.loc 1 902 5 is_stmt 1 view .LVU410
 1790              		.loc 1 902 8 is_stmt 0 view .LVU411
 1791 002a D0B1     		cbz	r0, .L132
 903:Middlewares/Third_Party/FreeRTOS/Source/CMSIS_RTOS/cmsis_os.c ****       /* Now allocate the pool itself. */
 904:Middlewares/Third_Party/FreeRTOS/Source/CMSIS_RTOS/cmsis_os.c ****      thePool->pool = pvPortMalloc(pool_def->pool_sz * itemSize);
 1792              		.loc 1 904 6 is_stmt 1 view .LVU412
 1793              		.loc 1 904 43 is_stmt 0 view .LVU413
 1794 002c 2068     		ldr	r0, [r4]
 1795              		.loc 1 904 22 view .LVU414
 1796 002e 00FB06F0 		mul	r0, r0, r6
 1797 0032 FFF7FEFF 		bl	pvPortMalloc
 1798              	.LVL134:
 1799 0036 0646     		mov	r6, r0
 1800              	.LVL135:
 1801              		.loc 1 904 20 view .LVU415
 1802 0038 2860     		str	r0, [r5]
 905:Middlewares/Third_Party/FreeRTOS/Source/CMSIS_RTOS/cmsis_os.c ****       
 906:Middlewares/Third_Party/FreeRTOS/Source/CMSIS_RTOS/cmsis_os.c ****       if (thePool->pool) {
 1803              		.loc 1 906 7 is_stmt 1 view .LVU416
 1804              		.loc 1 906 10 is_stmt 0 view .LVU417
 1805 003a 50B1     		cbz	r0, .L139
 907:Middlewares/Third_Party/FreeRTOS/Source/CMSIS_RTOS/cmsis_os.c ****         for (i = 0; i < pool_def->pool_sz; i++) {
 1806              		.loc 1 907 16 view .LVU418
 1807 003c 0023     		movs	r3, #0
 1808 003e 03E0     		b	.L133
 1809              	.LVL136:
 1810              	.L135:
 908:Middlewares/Third_Party/FreeRTOS/Source/CMSIS_RTOS/cmsis_os.c ****           thePool->markers[i] = 0;
 1811              		.loc 1 908 11 is_stmt 1 discriminator 3 view .LVU419
 1812              		.loc 1 908 18 is_stmt 0 discriminator 3 view .LVU420
 1813 0040 6A68     		ldr	r2, [r5, #4]
 1814              		.loc 1 908 31 discriminator 3 view .LVU421
 1815 0042 0021     		movs	r1, #0
 1816 0044 D154     		strb	r1, [r2, r3]
 907:Middlewares/Third_Party/FreeRTOS/Source/CMSIS_RTOS/cmsis_os.c ****         for (i = 0; i < pool_def->pool_sz; i++) {
 1817              		.loc 1 907 44 is_stmt 1 discriminator 3 view .LVU422
 907:Middlewares/Third_Party/FreeRTOS/Source/CMSIS_RTOS/cmsis_os.c ****         for (i = 0; i < pool_def->pool_sz; i++) {
ARM GAS  /tmp/ccYrIPsY.s 			page 53


 1818              		.loc 1 907 45 is_stmt 0 discriminator 3 view .LVU423
 1819 0046 0133     		adds	r3, r3, #1
 1820              	.LVL137:
 1821              	.L133:
 907:Middlewares/Third_Party/FreeRTOS/Source/CMSIS_RTOS/cmsis_os.c ****         for (i = 0; i < pool_def->pool_sz; i++) {
 1822              		.loc 1 907 21 is_stmt 1 discriminator 1 view .LVU424
 907:Middlewares/Third_Party/FreeRTOS/Source/CMSIS_RTOS/cmsis_os.c ****         for (i = 0; i < pool_def->pool_sz; i++) {
 1823              		.loc 1 907 33 is_stmt 0 discriminator 1 view .LVU425
 1824 0048 2268     		ldr	r2, [r4]
 907:Middlewares/Third_Party/FreeRTOS/Source/CMSIS_RTOS/cmsis_os.c ****         for (i = 0; i < pool_def->pool_sz; i++) {
 1825              		.loc 1 907 9 discriminator 1 view .LVU426
 1826 004a 9A42     		cmp	r2, r3
 1827 004c F8D8     		bhi	.L135
 1828              	.LVL138:
 1829              	.L130:
 909:Middlewares/Third_Party/FreeRTOS/Source/CMSIS_RTOS/cmsis_os.c ****         }
 910:Middlewares/Third_Party/FreeRTOS/Source/CMSIS_RTOS/cmsis_os.c ****       }
 911:Middlewares/Third_Party/FreeRTOS/Source/CMSIS_RTOS/cmsis_os.c ****       else {
 912:Middlewares/Third_Party/FreeRTOS/Source/CMSIS_RTOS/cmsis_os.c ****         vPortFree(thePool->markers);
 913:Middlewares/Third_Party/FreeRTOS/Source/CMSIS_RTOS/cmsis_os.c ****         vPortFree(thePool);
 914:Middlewares/Third_Party/FreeRTOS/Source/CMSIS_RTOS/cmsis_os.c ****         thePool = NULL;
 915:Middlewares/Third_Party/FreeRTOS/Source/CMSIS_RTOS/cmsis_os.c ****       }
 916:Middlewares/Third_Party/FreeRTOS/Source/CMSIS_RTOS/cmsis_os.c ****     }
 917:Middlewares/Third_Party/FreeRTOS/Source/CMSIS_RTOS/cmsis_os.c ****     else {
 918:Middlewares/Third_Party/FreeRTOS/Source/CMSIS_RTOS/cmsis_os.c ****       vPortFree(thePool);
 919:Middlewares/Third_Party/FreeRTOS/Source/CMSIS_RTOS/cmsis_os.c ****       thePool = NULL;
 920:Middlewares/Third_Party/FreeRTOS/Source/CMSIS_RTOS/cmsis_os.c ****     }
 921:Middlewares/Third_Party/FreeRTOS/Source/CMSIS_RTOS/cmsis_os.c ****   }
 922:Middlewares/Third_Party/FreeRTOS/Source/CMSIS_RTOS/cmsis_os.c **** 
 923:Middlewares/Third_Party/FreeRTOS/Source/CMSIS_RTOS/cmsis_os.c ****   return thePool;
 924:Middlewares/Third_Party/FreeRTOS/Source/CMSIS_RTOS/cmsis_os.c ****  
 925:Middlewares/Third_Party/FreeRTOS/Source/CMSIS_RTOS/cmsis_os.c **** #else
 926:Middlewares/Third_Party/FreeRTOS/Source/CMSIS_RTOS/cmsis_os.c ****   return NULL;
 927:Middlewares/Third_Party/FreeRTOS/Source/CMSIS_RTOS/cmsis_os.c **** #endif
 928:Middlewares/Third_Party/FreeRTOS/Source/CMSIS_RTOS/cmsis_os.c **** }
 1830              		.loc 1 928 1 view .LVU427
 1831 004e 2846     		mov	r0, r5
 1832 0050 F8BD     		pop	{r3, r4, r5, r6, r7, pc}
 1833              	.LVL139:
 1834              	.L139:
 912:Middlewares/Third_Party/FreeRTOS/Source/CMSIS_RTOS/cmsis_os.c ****         vPortFree(thePool);
 1835              		.loc 1 912 9 is_stmt 1 view .LVU428
 1836 0052 6868     		ldr	r0, [r5, #4]
 1837 0054 FFF7FEFF 		bl	vPortFree
 1838              	.LVL140:
 913:Middlewares/Third_Party/FreeRTOS/Source/CMSIS_RTOS/cmsis_os.c ****         thePool = NULL;
 1839              		.loc 1 913 9 view .LVU429
 1840 0058 2846     		mov	r0, r5
 1841 005a FFF7FEFF 		bl	vPortFree
 1842              	.LVL141:
 914:Middlewares/Third_Party/FreeRTOS/Source/CMSIS_RTOS/cmsis_os.c ****       }
 1843              		.loc 1 914 9 view .LVU430
 914:Middlewares/Third_Party/FreeRTOS/Source/CMSIS_RTOS/cmsis_os.c ****       }
 1844              		.loc 1 914 17 is_stmt 0 view .LVU431
 1845 005e 3546     		mov	r5, r6
 1846 0060 F5E7     		b	.L130
 1847              	.LVL142:
ARM GAS  /tmp/ccYrIPsY.s 			page 54


 1848              	.L132:
 918:Middlewares/Third_Party/FreeRTOS/Source/CMSIS_RTOS/cmsis_os.c ****       thePool = NULL;
 1849              		.loc 1 918 7 is_stmt 1 view .LVU432
 1850 0062 2846     		mov	r0, r5
 1851 0064 FFF7FEFF 		bl	vPortFree
 1852              	.LVL143:
 919:Middlewares/Third_Party/FreeRTOS/Source/CMSIS_RTOS/cmsis_os.c ****     }
 1853              		.loc 1 919 7 view .LVU433
 919:Middlewares/Third_Party/FreeRTOS/Source/CMSIS_RTOS/cmsis_os.c ****     }
 1854              		.loc 1 919 15 is_stmt 0 view .LVU434
 1855 0068 3D46     		mov	r5, r7
 1856              	.LVL144:
 923:Middlewares/Third_Party/FreeRTOS/Source/CMSIS_RTOS/cmsis_os.c ****  
 1857              		.loc 1 923 3 is_stmt 1 view .LVU435
 923:Middlewares/Third_Party/FreeRTOS/Source/CMSIS_RTOS/cmsis_os.c ****  
 1858              		.loc 1 923 10 is_stmt 0 view .LVU436
 1859 006a F0E7     		b	.L130
 1860              		.cfi_endproc
 1861              	.LFE134:
 1863              		.section	.text.osPoolAlloc,"ax",%progbits
 1864              		.align	1
 1865              		.global	osPoolAlloc
 1866              		.syntax unified
 1867              		.thumb
 1868              		.thumb_func
 1869              		.fpu fpv4-sp-d16
 1871              	osPoolAlloc:
 1872              	.LVL145:
 1873              	.LFB135:
 929:Middlewares/Third_Party/FreeRTOS/Source/CMSIS_RTOS/cmsis_os.c **** 
 930:Middlewares/Third_Party/FreeRTOS/Source/CMSIS_RTOS/cmsis_os.c **** /**
 931:Middlewares/Third_Party/FreeRTOS/Source/CMSIS_RTOS/cmsis_os.c **** * @brief Allocate a memory block from a memory pool
 932:Middlewares/Third_Party/FreeRTOS/Source/CMSIS_RTOS/cmsis_os.c **** * @param pool_id       memory pool ID obtain referenced with \ref osPoolCreate.
 933:Middlewares/Third_Party/FreeRTOS/Source/CMSIS_RTOS/cmsis_os.c **** * @retval  address of the allocated memory block or NULL in case of no memory available.
 934:Middlewares/Third_Party/FreeRTOS/Source/CMSIS_RTOS/cmsis_os.c **** * @note   MUST REMAIN UNCHANGED: \b osPoolAlloc shall be consistent in every CMSIS-RTOS.
 935:Middlewares/Third_Party/FreeRTOS/Source/CMSIS_RTOS/cmsis_os.c **** */
 936:Middlewares/Third_Party/FreeRTOS/Source/CMSIS_RTOS/cmsis_os.c **** void *osPoolAlloc (osPoolId pool_id)
 937:Middlewares/Third_Party/FreeRTOS/Source/CMSIS_RTOS/cmsis_os.c **** {
 1874              		.loc 1 937 1 is_stmt 1 view -0
 1875              		.cfi_startproc
 1876              		@ args = 0, pretend = 0, frame = 0
 1877              		@ frame_needed = 0, uses_anonymous_args = 0
 1878              		.loc 1 937 1 is_stmt 0 view .LVU438
 1879 0000 70B5     		push	{r4, r5, r6, lr}
 1880              	.LCFI44:
 1881              		.cfi_def_cfa_offset 16
 1882              		.cfi_offset 4, -16
 1883              		.cfi_offset 5, -12
 1884              		.cfi_offset 6, -8
 1885              		.cfi_offset 14, -4
 1886 0002 0546     		mov	r5, r0
 938:Middlewares/Third_Party/FreeRTOS/Source/CMSIS_RTOS/cmsis_os.c ****   int dummy = 0;
 1887              		.loc 1 938 3 is_stmt 1 view .LVU439
 1888              	.LVL146:
 939:Middlewares/Third_Party/FreeRTOS/Source/CMSIS_RTOS/cmsis_os.c ****   void *p = NULL;
 1889              		.loc 1 939 3 view .LVU440
 940:Middlewares/Third_Party/FreeRTOS/Source/CMSIS_RTOS/cmsis_os.c ****   uint32_t i;
ARM GAS  /tmp/ccYrIPsY.s 			page 55


 1890              		.loc 1 940 3 view .LVU441
 941:Middlewares/Third_Party/FreeRTOS/Source/CMSIS_RTOS/cmsis_os.c ****   uint32_t index;
 1891              		.loc 1 941 3 view .LVU442
 942:Middlewares/Third_Party/FreeRTOS/Source/CMSIS_RTOS/cmsis_os.c ****   
 943:Middlewares/Third_Party/FreeRTOS/Source/CMSIS_RTOS/cmsis_os.c ****   if (inHandlerMode()) {
 1892              		.loc 1 943 3 view .LVU443
 1893              		.loc 1 943 7 is_stmt 0 view .LVU444
 1894 0004 FFF7FEFF 		bl	inHandlerMode
 1895              	.LVL147:
 1896              		.loc 1 943 6 view .LVU445
 1897 0008 C8B1     		cbz	r0, .L141
 944:Middlewares/Third_Party/FreeRTOS/Source/CMSIS_RTOS/cmsis_os.c ****     dummy = portSET_INTERRUPT_MASK_FROM_ISR();
 1898              		.loc 1 944 5 is_stmt 1 view .LVU446
 1899              	.LBB10:
 1900              	.LBI10:
 1901              		.file 3 "Middlewares/Third_Party/FreeRTOS/Source/portable/GCC/ARM_CM4F/portmacro.h"
   1:Middlewares/Third_Party/FreeRTOS/Source/portable/GCC/ARM_CM4F/portmacro.h **** /*
   2:Middlewares/Third_Party/FreeRTOS/Source/portable/GCC/ARM_CM4F/portmacro.h ****  * FreeRTOS Kernel V10.3.1
   3:Middlewares/Third_Party/FreeRTOS/Source/portable/GCC/ARM_CM4F/portmacro.h ****  * Copyright (C) 2020 Amazon.com, Inc. or its affiliates.  All Rights Reserved.
   4:Middlewares/Third_Party/FreeRTOS/Source/portable/GCC/ARM_CM4F/portmacro.h ****  *
   5:Middlewares/Third_Party/FreeRTOS/Source/portable/GCC/ARM_CM4F/portmacro.h ****  * Permission is hereby granted, free of charge, to any person obtaining a copy of
   6:Middlewares/Third_Party/FreeRTOS/Source/portable/GCC/ARM_CM4F/portmacro.h ****  * this software and associated documentation files (the "Software"), to deal in
   7:Middlewares/Third_Party/FreeRTOS/Source/portable/GCC/ARM_CM4F/portmacro.h ****  * the Software without restriction, including without limitation the rights to
   8:Middlewares/Third_Party/FreeRTOS/Source/portable/GCC/ARM_CM4F/portmacro.h ****  * use, copy, modify, merge, publish, distribute, sublicense, and/or sell copies of
   9:Middlewares/Third_Party/FreeRTOS/Source/portable/GCC/ARM_CM4F/portmacro.h ****  * the Software, and to permit persons to whom the Software is furnished to do so,
  10:Middlewares/Third_Party/FreeRTOS/Source/portable/GCC/ARM_CM4F/portmacro.h ****  * subject to the following conditions:
  11:Middlewares/Third_Party/FreeRTOS/Source/portable/GCC/ARM_CM4F/portmacro.h ****  *
  12:Middlewares/Third_Party/FreeRTOS/Source/portable/GCC/ARM_CM4F/portmacro.h ****  * The above copyright notice and this permission notice shall be included in all
  13:Middlewares/Third_Party/FreeRTOS/Source/portable/GCC/ARM_CM4F/portmacro.h ****  * copies or substantial portions of the Software.
  14:Middlewares/Third_Party/FreeRTOS/Source/portable/GCC/ARM_CM4F/portmacro.h ****  *
  15:Middlewares/Third_Party/FreeRTOS/Source/portable/GCC/ARM_CM4F/portmacro.h ****  * THE SOFTWARE IS PROVIDED "AS IS", WITHOUT WARRANTY OF ANY KIND, EXPRESS OR
  16:Middlewares/Third_Party/FreeRTOS/Source/portable/GCC/ARM_CM4F/portmacro.h ****  * IMPLIED, INCLUDING BUT NOT LIMITED TO THE WARRANTIES OF MERCHANTABILITY, FITNESS
  17:Middlewares/Third_Party/FreeRTOS/Source/portable/GCC/ARM_CM4F/portmacro.h ****  * FOR A PARTICULAR PURPOSE AND NONINFRINGEMENT. IN NO EVENT SHALL THE AUTHORS OR
  18:Middlewares/Third_Party/FreeRTOS/Source/portable/GCC/ARM_CM4F/portmacro.h ****  * COPYRIGHT HOLDERS BE LIABLE FOR ANY CLAIM, DAMAGES OR OTHER LIABILITY, WHETHER
  19:Middlewares/Third_Party/FreeRTOS/Source/portable/GCC/ARM_CM4F/portmacro.h ****  * IN AN ACTION OF CONTRACT, TORT OR OTHERWISE, ARISING FROM, OUT OF OR IN
  20:Middlewares/Third_Party/FreeRTOS/Source/portable/GCC/ARM_CM4F/portmacro.h ****  * CONNECTION WITH THE SOFTWARE OR THE USE OR OTHER DEALINGS IN THE SOFTWARE.
  21:Middlewares/Third_Party/FreeRTOS/Source/portable/GCC/ARM_CM4F/portmacro.h ****  *
  22:Middlewares/Third_Party/FreeRTOS/Source/portable/GCC/ARM_CM4F/portmacro.h ****  * http://www.FreeRTOS.org
  23:Middlewares/Third_Party/FreeRTOS/Source/portable/GCC/ARM_CM4F/portmacro.h ****  * http://aws.amazon.com/freertos
  24:Middlewares/Third_Party/FreeRTOS/Source/portable/GCC/ARM_CM4F/portmacro.h ****  *
  25:Middlewares/Third_Party/FreeRTOS/Source/portable/GCC/ARM_CM4F/portmacro.h ****  * 1 tab == 4 spaces!
  26:Middlewares/Third_Party/FreeRTOS/Source/portable/GCC/ARM_CM4F/portmacro.h ****  */
  27:Middlewares/Third_Party/FreeRTOS/Source/portable/GCC/ARM_CM4F/portmacro.h **** 
  28:Middlewares/Third_Party/FreeRTOS/Source/portable/GCC/ARM_CM4F/portmacro.h **** 
  29:Middlewares/Third_Party/FreeRTOS/Source/portable/GCC/ARM_CM4F/portmacro.h **** #ifndef PORTMACRO_H
  30:Middlewares/Third_Party/FreeRTOS/Source/portable/GCC/ARM_CM4F/portmacro.h **** #define PORTMACRO_H
  31:Middlewares/Third_Party/FreeRTOS/Source/portable/GCC/ARM_CM4F/portmacro.h **** 
  32:Middlewares/Third_Party/FreeRTOS/Source/portable/GCC/ARM_CM4F/portmacro.h **** #ifdef __cplusplus
  33:Middlewares/Third_Party/FreeRTOS/Source/portable/GCC/ARM_CM4F/portmacro.h **** extern "C" {
  34:Middlewares/Third_Party/FreeRTOS/Source/portable/GCC/ARM_CM4F/portmacro.h **** #endif
  35:Middlewares/Third_Party/FreeRTOS/Source/portable/GCC/ARM_CM4F/portmacro.h **** 
  36:Middlewares/Third_Party/FreeRTOS/Source/portable/GCC/ARM_CM4F/portmacro.h **** /*-----------------------------------------------------------
  37:Middlewares/Third_Party/FreeRTOS/Source/portable/GCC/ARM_CM4F/portmacro.h ****  * Port specific definitions.
  38:Middlewares/Third_Party/FreeRTOS/Source/portable/GCC/ARM_CM4F/portmacro.h ****  *
  39:Middlewares/Third_Party/FreeRTOS/Source/portable/GCC/ARM_CM4F/portmacro.h ****  * The settings in this file configure FreeRTOS correctly for the
  40:Middlewares/Third_Party/FreeRTOS/Source/portable/GCC/ARM_CM4F/portmacro.h ****  * given hardware and compiler.
  41:Middlewares/Third_Party/FreeRTOS/Source/portable/GCC/ARM_CM4F/portmacro.h ****  *
ARM GAS  /tmp/ccYrIPsY.s 			page 56


  42:Middlewares/Third_Party/FreeRTOS/Source/portable/GCC/ARM_CM4F/portmacro.h ****  * These settings should not be altered.
  43:Middlewares/Third_Party/FreeRTOS/Source/portable/GCC/ARM_CM4F/portmacro.h ****  *-----------------------------------------------------------
  44:Middlewares/Third_Party/FreeRTOS/Source/portable/GCC/ARM_CM4F/portmacro.h ****  */
  45:Middlewares/Third_Party/FreeRTOS/Source/portable/GCC/ARM_CM4F/portmacro.h **** 
  46:Middlewares/Third_Party/FreeRTOS/Source/portable/GCC/ARM_CM4F/portmacro.h **** /* Type definitions. */
  47:Middlewares/Third_Party/FreeRTOS/Source/portable/GCC/ARM_CM4F/portmacro.h **** #define portCHAR		char
  48:Middlewares/Third_Party/FreeRTOS/Source/portable/GCC/ARM_CM4F/portmacro.h **** #define portFLOAT		float
  49:Middlewares/Third_Party/FreeRTOS/Source/portable/GCC/ARM_CM4F/portmacro.h **** #define portDOUBLE		double
  50:Middlewares/Third_Party/FreeRTOS/Source/portable/GCC/ARM_CM4F/portmacro.h **** #define portLONG		long
  51:Middlewares/Third_Party/FreeRTOS/Source/portable/GCC/ARM_CM4F/portmacro.h **** #define portSHORT		short
  52:Middlewares/Third_Party/FreeRTOS/Source/portable/GCC/ARM_CM4F/portmacro.h **** #define portSTACK_TYPE	uint32_t
  53:Middlewares/Third_Party/FreeRTOS/Source/portable/GCC/ARM_CM4F/portmacro.h **** #define portBASE_TYPE	long
  54:Middlewares/Third_Party/FreeRTOS/Source/portable/GCC/ARM_CM4F/portmacro.h **** 
  55:Middlewares/Third_Party/FreeRTOS/Source/portable/GCC/ARM_CM4F/portmacro.h **** typedef portSTACK_TYPE StackType_t;
  56:Middlewares/Third_Party/FreeRTOS/Source/portable/GCC/ARM_CM4F/portmacro.h **** typedef long BaseType_t;
  57:Middlewares/Third_Party/FreeRTOS/Source/portable/GCC/ARM_CM4F/portmacro.h **** typedef unsigned long UBaseType_t;
  58:Middlewares/Third_Party/FreeRTOS/Source/portable/GCC/ARM_CM4F/portmacro.h **** 
  59:Middlewares/Third_Party/FreeRTOS/Source/portable/GCC/ARM_CM4F/portmacro.h **** #if( configUSE_16_BIT_TICKS == 1 )
  60:Middlewares/Third_Party/FreeRTOS/Source/portable/GCC/ARM_CM4F/portmacro.h **** 	typedef uint16_t TickType_t;
  61:Middlewares/Third_Party/FreeRTOS/Source/portable/GCC/ARM_CM4F/portmacro.h **** 	#define portMAX_DELAY ( TickType_t ) 0xffff
  62:Middlewares/Third_Party/FreeRTOS/Source/portable/GCC/ARM_CM4F/portmacro.h **** #else
  63:Middlewares/Third_Party/FreeRTOS/Source/portable/GCC/ARM_CM4F/portmacro.h **** 	typedef uint32_t TickType_t;
  64:Middlewares/Third_Party/FreeRTOS/Source/portable/GCC/ARM_CM4F/portmacro.h **** 	#define portMAX_DELAY ( TickType_t ) 0xffffffffUL
  65:Middlewares/Third_Party/FreeRTOS/Source/portable/GCC/ARM_CM4F/portmacro.h **** 
  66:Middlewares/Third_Party/FreeRTOS/Source/portable/GCC/ARM_CM4F/portmacro.h **** 	/* 32-bit tick type on a 32-bit architecture, so reads of the tick count do
  67:Middlewares/Third_Party/FreeRTOS/Source/portable/GCC/ARM_CM4F/portmacro.h **** 	not need to be guarded with a critical section. */
  68:Middlewares/Third_Party/FreeRTOS/Source/portable/GCC/ARM_CM4F/portmacro.h **** 	#define portTICK_TYPE_IS_ATOMIC 1
  69:Middlewares/Third_Party/FreeRTOS/Source/portable/GCC/ARM_CM4F/portmacro.h **** #endif
  70:Middlewares/Third_Party/FreeRTOS/Source/portable/GCC/ARM_CM4F/portmacro.h **** /*-----------------------------------------------------------*/
  71:Middlewares/Third_Party/FreeRTOS/Source/portable/GCC/ARM_CM4F/portmacro.h **** 
  72:Middlewares/Third_Party/FreeRTOS/Source/portable/GCC/ARM_CM4F/portmacro.h **** /* Architecture specifics. */
  73:Middlewares/Third_Party/FreeRTOS/Source/portable/GCC/ARM_CM4F/portmacro.h **** #define portSTACK_GROWTH			( -1 )
  74:Middlewares/Third_Party/FreeRTOS/Source/portable/GCC/ARM_CM4F/portmacro.h **** #define portTICK_PERIOD_MS			( ( TickType_t ) 1000 / configTICK_RATE_HZ )
  75:Middlewares/Third_Party/FreeRTOS/Source/portable/GCC/ARM_CM4F/portmacro.h **** #define portBYTE_ALIGNMENT			8
  76:Middlewares/Third_Party/FreeRTOS/Source/portable/GCC/ARM_CM4F/portmacro.h **** /*-----------------------------------------------------------*/
  77:Middlewares/Third_Party/FreeRTOS/Source/portable/GCC/ARM_CM4F/portmacro.h **** 
  78:Middlewares/Third_Party/FreeRTOS/Source/portable/GCC/ARM_CM4F/portmacro.h **** /* Scheduler utilities. */
  79:Middlewares/Third_Party/FreeRTOS/Source/portable/GCC/ARM_CM4F/portmacro.h **** #define portYIELD() 															\
  80:Middlewares/Third_Party/FreeRTOS/Source/portable/GCC/ARM_CM4F/portmacro.h **** {																				\
  81:Middlewares/Third_Party/FreeRTOS/Source/portable/GCC/ARM_CM4F/portmacro.h **** 	/* Set a PendSV to request a context switch. */								\
  82:Middlewares/Third_Party/FreeRTOS/Source/portable/GCC/ARM_CM4F/portmacro.h **** 	portNVIC_INT_CTRL_REG = portNVIC_PENDSVSET_BIT;								\
  83:Middlewares/Third_Party/FreeRTOS/Source/portable/GCC/ARM_CM4F/portmacro.h **** 																				\
  84:Middlewares/Third_Party/FreeRTOS/Source/portable/GCC/ARM_CM4F/portmacro.h **** 	/* Barriers are normally not required but do ensure the code is completely	\
  85:Middlewares/Third_Party/FreeRTOS/Source/portable/GCC/ARM_CM4F/portmacro.h **** 	within the specified behaviour for the architecture. */						\
  86:Middlewares/Third_Party/FreeRTOS/Source/portable/GCC/ARM_CM4F/portmacro.h **** 	__asm volatile( "dsb" ::: "memory" );										\
  87:Middlewares/Third_Party/FreeRTOS/Source/portable/GCC/ARM_CM4F/portmacro.h **** 	__asm volatile( "isb" );													\
  88:Middlewares/Third_Party/FreeRTOS/Source/portable/GCC/ARM_CM4F/portmacro.h **** }
  89:Middlewares/Third_Party/FreeRTOS/Source/portable/GCC/ARM_CM4F/portmacro.h **** 
  90:Middlewares/Third_Party/FreeRTOS/Source/portable/GCC/ARM_CM4F/portmacro.h **** #define portNVIC_INT_CTRL_REG		( * ( ( volatile uint32_t * ) 0xe000ed04 ) )
  91:Middlewares/Third_Party/FreeRTOS/Source/portable/GCC/ARM_CM4F/portmacro.h **** #define portNVIC_PENDSVSET_BIT		( 1UL << 28UL )
  92:Middlewares/Third_Party/FreeRTOS/Source/portable/GCC/ARM_CM4F/portmacro.h **** #define portEND_SWITCHING_ISR( xSwitchRequired ) if( xSwitchRequired != pdFALSE ) portYIELD()
  93:Middlewares/Third_Party/FreeRTOS/Source/portable/GCC/ARM_CM4F/portmacro.h **** #define portYIELD_FROM_ISR( x ) portEND_SWITCHING_ISR( x )
  94:Middlewares/Third_Party/FreeRTOS/Source/portable/GCC/ARM_CM4F/portmacro.h **** /*-----------------------------------------------------------*/
  95:Middlewares/Third_Party/FreeRTOS/Source/portable/GCC/ARM_CM4F/portmacro.h **** 
  96:Middlewares/Third_Party/FreeRTOS/Source/portable/GCC/ARM_CM4F/portmacro.h **** /* Critical section management. */
  97:Middlewares/Third_Party/FreeRTOS/Source/portable/GCC/ARM_CM4F/portmacro.h **** extern void vPortEnterCritical( void );
  98:Middlewares/Third_Party/FreeRTOS/Source/portable/GCC/ARM_CM4F/portmacro.h **** extern void vPortExitCritical( void );
ARM GAS  /tmp/ccYrIPsY.s 			page 57


  99:Middlewares/Third_Party/FreeRTOS/Source/portable/GCC/ARM_CM4F/portmacro.h **** #define portSET_INTERRUPT_MASK_FROM_ISR()		ulPortRaiseBASEPRI()
 100:Middlewares/Third_Party/FreeRTOS/Source/portable/GCC/ARM_CM4F/portmacro.h **** #define portCLEAR_INTERRUPT_MASK_FROM_ISR(x)	vPortSetBASEPRI(x)
 101:Middlewares/Third_Party/FreeRTOS/Source/portable/GCC/ARM_CM4F/portmacro.h **** #define portDISABLE_INTERRUPTS()				vPortRaiseBASEPRI()
 102:Middlewares/Third_Party/FreeRTOS/Source/portable/GCC/ARM_CM4F/portmacro.h **** #define portENABLE_INTERRUPTS()					vPortSetBASEPRI(0)
 103:Middlewares/Third_Party/FreeRTOS/Source/portable/GCC/ARM_CM4F/portmacro.h **** #define portENTER_CRITICAL()					vPortEnterCritical()
 104:Middlewares/Third_Party/FreeRTOS/Source/portable/GCC/ARM_CM4F/portmacro.h **** #define portEXIT_CRITICAL()						vPortExitCritical()
 105:Middlewares/Third_Party/FreeRTOS/Source/portable/GCC/ARM_CM4F/portmacro.h **** 
 106:Middlewares/Third_Party/FreeRTOS/Source/portable/GCC/ARM_CM4F/portmacro.h **** /*-----------------------------------------------------------*/
 107:Middlewares/Third_Party/FreeRTOS/Source/portable/GCC/ARM_CM4F/portmacro.h **** 
 108:Middlewares/Third_Party/FreeRTOS/Source/portable/GCC/ARM_CM4F/portmacro.h **** /* Task function macros as described on the FreeRTOS.org WEB site.  These are
 109:Middlewares/Third_Party/FreeRTOS/Source/portable/GCC/ARM_CM4F/portmacro.h **** not necessary for to use this port.  They are defined so the common demo files
 110:Middlewares/Third_Party/FreeRTOS/Source/portable/GCC/ARM_CM4F/portmacro.h **** (which build with all the ports) will build. */
 111:Middlewares/Third_Party/FreeRTOS/Source/portable/GCC/ARM_CM4F/portmacro.h **** #define portTASK_FUNCTION_PROTO( vFunction, pvParameters ) void vFunction( void *pvParameters )
 112:Middlewares/Third_Party/FreeRTOS/Source/portable/GCC/ARM_CM4F/portmacro.h **** #define portTASK_FUNCTION( vFunction, pvParameters ) void vFunction( void *pvParameters )
 113:Middlewares/Third_Party/FreeRTOS/Source/portable/GCC/ARM_CM4F/portmacro.h **** /*-----------------------------------------------------------*/
 114:Middlewares/Third_Party/FreeRTOS/Source/portable/GCC/ARM_CM4F/portmacro.h **** 
 115:Middlewares/Third_Party/FreeRTOS/Source/portable/GCC/ARM_CM4F/portmacro.h **** /* Tickless idle/low power functionality. */
 116:Middlewares/Third_Party/FreeRTOS/Source/portable/GCC/ARM_CM4F/portmacro.h **** #ifndef portSUPPRESS_TICKS_AND_SLEEP
 117:Middlewares/Third_Party/FreeRTOS/Source/portable/GCC/ARM_CM4F/portmacro.h **** 	extern void vPortSuppressTicksAndSleep( TickType_t xExpectedIdleTime );
 118:Middlewares/Third_Party/FreeRTOS/Source/portable/GCC/ARM_CM4F/portmacro.h **** 	#define portSUPPRESS_TICKS_AND_SLEEP( xExpectedIdleTime ) vPortSuppressTicksAndSleep( xExpectedIdl
 119:Middlewares/Third_Party/FreeRTOS/Source/portable/GCC/ARM_CM4F/portmacro.h **** #endif
 120:Middlewares/Third_Party/FreeRTOS/Source/portable/GCC/ARM_CM4F/portmacro.h **** /*-----------------------------------------------------------*/
 121:Middlewares/Third_Party/FreeRTOS/Source/portable/GCC/ARM_CM4F/portmacro.h **** 
 122:Middlewares/Third_Party/FreeRTOS/Source/portable/GCC/ARM_CM4F/portmacro.h **** /* Architecture specific optimisations. */
 123:Middlewares/Third_Party/FreeRTOS/Source/portable/GCC/ARM_CM4F/portmacro.h **** #ifndef configUSE_PORT_OPTIMISED_TASK_SELECTION
 124:Middlewares/Third_Party/FreeRTOS/Source/portable/GCC/ARM_CM4F/portmacro.h **** 	#define configUSE_PORT_OPTIMISED_TASK_SELECTION 1
 125:Middlewares/Third_Party/FreeRTOS/Source/portable/GCC/ARM_CM4F/portmacro.h **** #endif
 126:Middlewares/Third_Party/FreeRTOS/Source/portable/GCC/ARM_CM4F/portmacro.h **** 
 127:Middlewares/Third_Party/FreeRTOS/Source/portable/GCC/ARM_CM4F/portmacro.h **** #if configUSE_PORT_OPTIMISED_TASK_SELECTION == 1
 128:Middlewares/Third_Party/FreeRTOS/Source/portable/GCC/ARM_CM4F/portmacro.h **** 
 129:Middlewares/Third_Party/FreeRTOS/Source/portable/GCC/ARM_CM4F/portmacro.h **** 	/* Generic helper function. */
 130:Middlewares/Third_Party/FreeRTOS/Source/portable/GCC/ARM_CM4F/portmacro.h **** 	__attribute__( ( always_inline ) ) static inline uint8_t ucPortCountLeadingZeros( uint32_t ulBitma
 131:Middlewares/Third_Party/FreeRTOS/Source/portable/GCC/ARM_CM4F/portmacro.h **** 	{
 132:Middlewares/Third_Party/FreeRTOS/Source/portable/GCC/ARM_CM4F/portmacro.h **** 	uint8_t ucReturn;
 133:Middlewares/Third_Party/FreeRTOS/Source/portable/GCC/ARM_CM4F/portmacro.h **** 
 134:Middlewares/Third_Party/FreeRTOS/Source/portable/GCC/ARM_CM4F/portmacro.h **** 		__asm volatile ( "clz %0, %1" : "=r" ( ucReturn ) : "r" ( ulBitmap ) : "memory" );
 135:Middlewares/Third_Party/FreeRTOS/Source/portable/GCC/ARM_CM4F/portmacro.h **** 		return ucReturn;
 136:Middlewares/Third_Party/FreeRTOS/Source/portable/GCC/ARM_CM4F/portmacro.h **** 	}
 137:Middlewares/Third_Party/FreeRTOS/Source/portable/GCC/ARM_CM4F/portmacro.h **** 
 138:Middlewares/Third_Party/FreeRTOS/Source/portable/GCC/ARM_CM4F/portmacro.h **** 	/* Check the configuration. */
 139:Middlewares/Third_Party/FreeRTOS/Source/portable/GCC/ARM_CM4F/portmacro.h **** 	#if( configMAX_PRIORITIES > 32 )
 140:Middlewares/Third_Party/FreeRTOS/Source/portable/GCC/ARM_CM4F/portmacro.h **** 		#error configUSE_PORT_OPTIMISED_TASK_SELECTION can only be set to 1 when configMAX_PRIORITIES is 
 141:Middlewares/Third_Party/FreeRTOS/Source/portable/GCC/ARM_CM4F/portmacro.h **** 	#endif
 142:Middlewares/Third_Party/FreeRTOS/Source/portable/GCC/ARM_CM4F/portmacro.h **** 
 143:Middlewares/Third_Party/FreeRTOS/Source/portable/GCC/ARM_CM4F/portmacro.h **** 	/* Store/clear the ready priorities in a bit map. */
 144:Middlewares/Third_Party/FreeRTOS/Source/portable/GCC/ARM_CM4F/portmacro.h **** 	#define portRECORD_READY_PRIORITY( uxPriority, uxReadyPriorities ) ( uxReadyPriorities ) |= ( 1UL 
 145:Middlewares/Third_Party/FreeRTOS/Source/portable/GCC/ARM_CM4F/portmacro.h **** 	#define portRESET_READY_PRIORITY( uxPriority, uxReadyPriorities ) ( uxReadyPriorities ) &= ~( 1UL 
 146:Middlewares/Third_Party/FreeRTOS/Source/portable/GCC/ARM_CM4F/portmacro.h **** 
 147:Middlewares/Third_Party/FreeRTOS/Source/portable/GCC/ARM_CM4F/portmacro.h **** 	/*-----------------------------------------------------------*/
 148:Middlewares/Third_Party/FreeRTOS/Source/portable/GCC/ARM_CM4F/portmacro.h **** 
 149:Middlewares/Third_Party/FreeRTOS/Source/portable/GCC/ARM_CM4F/portmacro.h **** 	#define portGET_HIGHEST_PRIORITY( uxTopPriority, uxReadyPriorities ) uxTopPriority = ( 31UL - ( ui
 150:Middlewares/Third_Party/FreeRTOS/Source/portable/GCC/ARM_CM4F/portmacro.h **** 
 151:Middlewares/Third_Party/FreeRTOS/Source/portable/GCC/ARM_CM4F/portmacro.h **** #endif /* configUSE_PORT_OPTIMISED_TASK_SELECTION */
 152:Middlewares/Third_Party/FreeRTOS/Source/portable/GCC/ARM_CM4F/portmacro.h **** 
 153:Middlewares/Third_Party/FreeRTOS/Source/portable/GCC/ARM_CM4F/portmacro.h **** /*-----------------------------------------------------------*/
 154:Middlewares/Third_Party/FreeRTOS/Source/portable/GCC/ARM_CM4F/portmacro.h **** 
 155:Middlewares/Third_Party/FreeRTOS/Source/portable/GCC/ARM_CM4F/portmacro.h **** #ifdef configASSERT
ARM GAS  /tmp/ccYrIPsY.s 			page 58


 156:Middlewares/Third_Party/FreeRTOS/Source/portable/GCC/ARM_CM4F/portmacro.h **** 	void vPortValidateInterruptPriority( void );
 157:Middlewares/Third_Party/FreeRTOS/Source/portable/GCC/ARM_CM4F/portmacro.h **** 	#define portASSERT_IF_INTERRUPT_PRIORITY_INVALID() 	vPortValidateInterruptPriority()
 158:Middlewares/Third_Party/FreeRTOS/Source/portable/GCC/ARM_CM4F/portmacro.h **** #endif
 159:Middlewares/Third_Party/FreeRTOS/Source/portable/GCC/ARM_CM4F/portmacro.h **** 
 160:Middlewares/Third_Party/FreeRTOS/Source/portable/GCC/ARM_CM4F/portmacro.h **** /* portNOP() is not required by this port. */
 161:Middlewares/Third_Party/FreeRTOS/Source/portable/GCC/ARM_CM4F/portmacro.h **** #define portNOP()
 162:Middlewares/Third_Party/FreeRTOS/Source/portable/GCC/ARM_CM4F/portmacro.h **** 
 163:Middlewares/Third_Party/FreeRTOS/Source/portable/GCC/ARM_CM4F/portmacro.h **** #define portINLINE	__inline
 164:Middlewares/Third_Party/FreeRTOS/Source/portable/GCC/ARM_CM4F/portmacro.h **** 
 165:Middlewares/Third_Party/FreeRTOS/Source/portable/GCC/ARM_CM4F/portmacro.h **** #ifndef portFORCE_INLINE
 166:Middlewares/Third_Party/FreeRTOS/Source/portable/GCC/ARM_CM4F/portmacro.h **** 	#define portFORCE_INLINE inline __attribute__(( always_inline))
 167:Middlewares/Third_Party/FreeRTOS/Source/portable/GCC/ARM_CM4F/portmacro.h **** #endif
 168:Middlewares/Third_Party/FreeRTOS/Source/portable/GCC/ARM_CM4F/portmacro.h **** 
 169:Middlewares/Third_Party/FreeRTOS/Source/portable/GCC/ARM_CM4F/portmacro.h **** portFORCE_INLINE static BaseType_t xPortIsInsideInterrupt( void )
 170:Middlewares/Third_Party/FreeRTOS/Source/portable/GCC/ARM_CM4F/portmacro.h **** {
 171:Middlewares/Third_Party/FreeRTOS/Source/portable/GCC/ARM_CM4F/portmacro.h **** uint32_t ulCurrentInterrupt;
 172:Middlewares/Third_Party/FreeRTOS/Source/portable/GCC/ARM_CM4F/portmacro.h **** BaseType_t xReturn;
 173:Middlewares/Third_Party/FreeRTOS/Source/portable/GCC/ARM_CM4F/portmacro.h **** 
 174:Middlewares/Third_Party/FreeRTOS/Source/portable/GCC/ARM_CM4F/portmacro.h **** 	/* Obtain the number of the currently executing interrupt. */
 175:Middlewares/Third_Party/FreeRTOS/Source/portable/GCC/ARM_CM4F/portmacro.h **** 	__asm volatile( "mrs %0, ipsr" : "=r"( ulCurrentInterrupt ) :: "memory" );
 176:Middlewares/Third_Party/FreeRTOS/Source/portable/GCC/ARM_CM4F/portmacro.h **** 
 177:Middlewares/Third_Party/FreeRTOS/Source/portable/GCC/ARM_CM4F/portmacro.h **** 	if( ulCurrentInterrupt == 0 )
 178:Middlewares/Third_Party/FreeRTOS/Source/portable/GCC/ARM_CM4F/portmacro.h **** 	{
 179:Middlewares/Third_Party/FreeRTOS/Source/portable/GCC/ARM_CM4F/portmacro.h **** 		xReturn = pdFALSE;
 180:Middlewares/Third_Party/FreeRTOS/Source/portable/GCC/ARM_CM4F/portmacro.h **** 	}
 181:Middlewares/Third_Party/FreeRTOS/Source/portable/GCC/ARM_CM4F/portmacro.h **** 	else
 182:Middlewares/Third_Party/FreeRTOS/Source/portable/GCC/ARM_CM4F/portmacro.h **** 	{
 183:Middlewares/Third_Party/FreeRTOS/Source/portable/GCC/ARM_CM4F/portmacro.h **** 		xReturn = pdTRUE;
 184:Middlewares/Third_Party/FreeRTOS/Source/portable/GCC/ARM_CM4F/portmacro.h **** 	}
 185:Middlewares/Third_Party/FreeRTOS/Source/portable/GCC/ARM_CM4F/portmacro.h **** 
 186:Middlewares/Third_Party/FreeRTOS/Source/portable/GCC/ARM_CM4F/portmacro.h **** 	return xReturn;
 187:Middlewares/Third_Party/FreeRTOS/Source/portable/GCC/ARM_CM4F/portmacro.h **** }
 188:Middlewares/Third_Party/FreeRTOS/Source/portable/GCC/ARM_CM4F/portmacro.h **** 
 189:Middlewares/Third_Party/FreeRTOS/Source/portable/GCC/ARM_CM4F/portmacro.h **** /*-----------------------------------------------------------*/
 190:Middlewares/Third_Party/FreeRTOS/Source/portable/GCC/ARM_CM4F/portmacro.h **** 
 191:Middlewares/Third_Party/FreeRTOS/Source/portable/GCC/ARM_CM4F/portmacro.h **** portFORCE_INLINE static void vPortRaiseBASEPRI( void )
 192:Middlewares/Third_Party/FreeRTOS/Source/portable/GCC/ARM_CM4F/portmacro.h **** {
 193:Middlewares/Third_Party/FreeRTOS/Source/portable/GCC/ARM_CM4F/portmacro.h **** uint32_t ulNewBASEPRI;
 194:Middlewares/Third_Party/FreeRTOS/Source/portable/GCC/ARM_CM4F/portmacro.h **** 
 195:Middlewares/Third_Party/FreeRTOS/Source/portable/GCC/ARM_CM4F/portmacro.h **** 	__asm volatile
 196:Middlewares/Third_Party/FreeRTOS/Source/portable/GCC/ARM_CM4F/portmacro.h **** 	(
 197:Middlewares/Third_Party/FreeRTOS/Source/portable/GCC/ARM_CM4F/portmacro.h **** 		"	mov %0, %1												\n"	\
 198:Middlewares/Third_Party/FreeRTOS/Source/portable/GCC/ARM_CM4F/portmacro.h **** 		"	msr basepri, %0											\n" \
 199:Middlewares/Third_Party/FreeRTOS/Source/portable/GCC/ARM_CM4F/portmacro.h **** 		"	isb														\n" \
 200:Middlewares/Third_Party/FreeRTOS/Source/portable/GCC/ARM_CM4F/portmacro.h **** 		"	dsb														\n" \
 201:Middlewares/Third_Party/FreeRTOS/Source/portable/GCC/ARM_CM4F/portmacro.h **** 		:"=r" (ulNewBASEPRI) : "i" ( configMAX_SYSCALL_INTERRUPT_PRIORITY ) : "memory"
 202:Middlewares/Third_Party/FreeRTOS/Source/portable/GCC/ARM_CM4F/portmacro.h **** 	);
 203:Middlewares/Third_Party/FreeRTOS/Source/portable/GCC/ARM_CM4F/portmacro.h **** }
 204:Middlewares/Third_Party/FreeRTOS/Source/portable/GCC/ARM_CM4F/portmacro.h **** 
 205:Middlewares/Third_Party/FreeRTOS/Source/portable/GCC/ARM_CM4F/portmacro.h **** /*-----------------------------------------------------------*/
 206:Middlewares/Third_Party/FreeRTOS/Source/portable/GCC/ARM_CM4F/portmacro.h **** 
 207:Middlewares/Third_Party/FreeRTOS/Source/portable/GCC/ARM_CM4F/portmacro.h **** portFORCE_INLINE static uint32_t ulPortRaiseBASEPRI( void )
 1902              		.loc 3 207 34 view .LVU447
 1903              	.LBB11:
 208:Middlewares/Third_Party/FreeRTOS/Source/portable/GCC/ARM_CM4F/portmacro.h **** {
 209:Middlewares/Third_Party/FreeRTOS/Source/portable/GCC/ARM_CM4F/portmacro.h **** uint32_t ulOriginalBASEPRI, ulNewBASEPRI;
 1904              		.loc 3 209 1 view .LVU448
ARM GAS  /tmp/ccYrIPsY.s 			page 59


 210:Middlewares/Third_Party/FreeRTOS/Source/portable/GCC/ARM_CM4F/portmacro.h **** 
 211:Middlewares/Third_Party/FreeRTOS/Source/portable/GCC/ARM_CM4F/portmacro.h **** 	__asm volatile
 1905              		.loc 3 211 2 view .LVU449
 1906              		.syntax unified
 1907              	@ 211 "Middlewares/Third_Party/FreeRTOS/Source/portable/GCC/ARM_CM4F/portmacro.h" 1
 1908 000a EFF31186 			mrs r6, basepri											
 1909 000e 4FF05003 		mov r3, #80												
 1910 0012 83F31188 		msr basepri, r3											
 1911 0016 BFF36F8F 		isb														
 1912 001a BFF34F8F 		dsb														
 1913              	
 1914              	@ 0 "" 2
 1915              	.LVL148:
 212:Middlewares/Third_Party/FreeRTOS/Source/portable/GCC/ARM_CM4F/portmacro.h **** 	(
 213:Middlewares/Third_Party/FreeRTOS/Source/portable/GCC/ARM_CM4F/portmacro.h **** 		"	mrs %0, basepri											\n" \
 214:Middlewares/Third_Party/FreeRTOS/Source/portable/GCC/ARM_CM4F/portmacro.h **** 		"	mov %1, %2												\n"	\
 215:Middlewares/Third_Party/FreeRTOS/Source/portable/GCC/ARM_CM4F/portmacro.h **** 		"	msr basepri, %1											\n" \
 216:Middlewares/Third_Party/FreeRTOS/Source/portable/GCC/ARM_CM4F/portmacro.h **** 		"	isb														\n" \
 217:Middlewares/Third_Party/FreeRTOS/Source/portable/GCC/ARM_CM4F/portmacro.h **** 		"	dsb														\n" \
 218:Middlewares/Third_Party/FreeRTOS/Source/portable/GCC/ARM_CM4F/portmacro.h **** 		:"=r" (ulOriginalBASEPRI), "=r" (ulNewBASEPRI) : "i" ( configMAX_SYSCALL_INTERRUPT_PRIORITY ) : "
 219:Middlewares/Third_Party/FreeRTOS/Source/portable/GCC/ARM_CM4F/portmacro.h **** 	);
 220:Middlewares/Third_Party/FreeRTOS/Source/portable/GCC/ARM_CM4F/portmacro.h **** 
 221:Middlewares/Third_Party/FreeRTOS/Source/portable/GCC/ARM_CM4F/portmacro.h **** 	/* This return will not be reached but is necessary to prevent compiler
 222:Middlewares/Third_Party/FreeRTOS/Source/portable/GCC/ARM_CM4F/portmacro.h **** 	warnings. */
 223:Middlewares/Third_Party/FreeRTOS/Source/portable/GCC/ARM_CM4F/portmacro.h **** 	return ulOriginalBASEPRI;
 1916              		.loc 3 223 2 view .LVU450
 1917              		.thumb
 1918              		.syntax unified
 1919              	.L142:
 1920              		.loc 3 223 2 is_stmt 0 view .LVU451
 1921              	.LBE11:
 1922              	.LBE10:
 945:Middlewares/Third_Party/FreeRTOS/Source/CMSIS_RTOS/cmsis_os.c ****   }
 946:Middlewares/Third_Party/FreeRTOS/Source/CMSIS_RTOS/cmsis_os.c ****   else {
 947:Middlewares/Third_Party/FreeRTOS/Source/CMSIS_RTOS/cmsis_os.c ****     vPortEnterCritical();
 948:Middlewares/Third_Party/FreeRTOS/Source/CMSIS_RTOS/cmsis_os.c ****   }
 949:Middlewares/Third_Party/FreeRTOS/Source/CMSIS_RTOS/cmsis_os.c ****   
 950:Middlewares/Third_Party/FreeRTOS/Source/CMSIS_RTOS/cmsis_os.c ****   for (i = 0; i < pool_id->pool_sz; i++) {
 1923              		.loc 1 950 3 is_stmt 1 view .LVU452
 1924              		.loc 1 950 10 is_stmt 0 view .LVU453
 1925 001e 0024     		movs	r4, #0
 1926              	.LVL149:
 1927              	.L143:
 1928              		.loc 1 950 15 is_stmt 1 discriminator 1 view .LVU454
 1929              		.loc 1 950 26 is_stmt 0 discriminator 1 view .LVU455
 1930 0020 A968     		ldr	r1, [r5, #8]
 1931              		.loc 1 950 3 discriminator 1 view .LVU456
 1932 0022 A142     		cmp	r1, r4
 1933 0024 17D9     		bls	.L150
 951:Middlewares/Third_Party/FreeRTOS/Source/CMSIS_RTOS/cmsis_os.c ****     index = (pool_id->currentIndex + i) % pool_id->pool_sz;
 1934              		.loc 1 951 5 is_stmt 1 view .LVU457
 1935              		.loc 1 951 21 is_stmt 0 view .LVU458
 1936 0026 2B69     		ldr	r3, [r5, #16]
 1937              		.loc 1 951 36 view .LVU459
 1938 0028 1A19     		adds	r2, r3, r4
 1939              		.loc 1 951 11 view .LVU460
 1940 002a B2FBF1F3 		udiv	r3, r2, r1
ARM GAS  /tmp/ccYrIPsY.s 			page 60


 1941 002e 01FB1323 		mls	r3, r1, r3, r2
 1942              	.LVL150:
 952:Middlewares/Third_Party/FreeRTOS/Source/CMSIS_RTOS/cmsis_os.c ****     
 953:Middlewares/Third_Party/FreeRTOS/Source/CMSIS_RTOS/cmsis_os.c ****     if (pool_id->markers[index] == 0) {
 1943              		.loc 1 953 5 is_stmt 1 view .LVU461
 1944              		.loc 1 953 16 is_stmt 0 view .LVU462
 1945 0032 6A68     		ldr	r2, [r5, #4]
 1946              		.loc 1 953 25 view .LVU463
 1947 0034 D118     		adds	r1, r2, r3
 1948 0036 D25C     		ldrb	r2, [r2, r3]	@ zero_extendqisi2
 1949              		.loc 1 953 8 view .LVU464
 1950 0038 2AB1     		cbz	r2, .L151
 950:Middlewares/Third_Party/FreeRTOS/Source/CMSIS_RTOS/cmsis_os.c ****     index = (pool_id->currentIndex + i) % pool_id->pool_sz;
 1951              		.loc 1 950 37 is_stmt 1 discriminator 2 view .LVU465
 950:Middlewares/Third_Party/FreeRTOS/Source/CMSIS_RTOS/cmsis_os.c ****     index = (pool_id->currentIndex + i) % pool_id->pool_sz;
 1952              		.loc 1 950 38 is_stmt 0 discriminator 2 view .LVU466
 1953 003a 0134     		adds	r4, r4, #1
 1954              	.LVL151:
 950:Middlewares/Third_Party/FreeRTOS/Source/CMSIS_RTOS/cmsis_os.c ****     index = (pool_id->currentIndex + i) % pool_id->pool_sz;
 1955              		.loc 1 950 38 discriminator 2 view .LVU467
 1956 003c F0E7     		b	.L143
 1957              	.LVL152:
 1958              	.L141:
 950:Middlewares/Third_Party/FreeRTOS/Source/CMSIS_RTOS/cmsis_os.c ****     index = (pool_id->currentIndex + i) % pool_id->pool_sz;
 1959              		.loc 1 950 38 discriminator 2 view .LVU468
 1960 003e 0646     		mov	r6, r0
 947:Middlewares/Third_Party/FreeRTOS/Source/CMSIS_RTOS/cmsis_os.c ****   }
 1961              		.loc 1 947 5 is_stmt 1 view .LVU469
 1962 0040 FFF7FEFF 		bl	vPortEnterCritical
 1963              	.LVL153:
 1964 0044 EBE7     		b	.L142
 1965              	.LVL154:
 1966              	.L151:
 954:Middlewares/Third_Party/FreeRTOS/Source/CMSIS_RTOS/cmsis_os.c ****       pool_id->markers[index] = 1;
 1967              		.loc 1 954 7 view .LVU470
 1968              		.loc 1 954 31 is_stmt 0 view .LVU471
 1969 0046 0122     		movs	r2, #1
 1970 0048 0A70     		strb	r2, [r1]
 955:Middlewares/Third_Party/FreeRTOS/Source/CMSIS_RTOS/cmsis_os.c ****       p = (void *)((uint32_t)(pool_id->pool) + (index * pool_id->item_sz));
 1971              		.loc 1 955 7 is_stmt 1 view .LVU472
 1972              		.loc 1 955 38 is_stmt 0 view .LVU473
 1973 004a 2A68     		ldr	r2, [r5]
 1974              		.loc 1 955 64 view .LVU474
 1975 004c EC68     		ldr	r4, [r5, #12]
 1976              	.LVL155:
 1977              		.loc 1 955 46 view .LVU475
 1978 004e 03FB0424 		mla	r4, r3, r4, r2
 1979              	.LVL156:
 956:Middlewares/Third_Party/FreeRTOS/Source/CMSIS_RTOS/cmsis_os.c ****       pool_id->currentIndex = index;
 1980              		.loc 1 956 7 is_stmt 1 view .LVU476
 1981              		.loc 1 956 29 is_stmt 0 view .LVU477
 1982 0052 2B61     		str	r3, [r5, #16]
 957:Middlewares/Third_Party/FreeRTOS/Source/CMSIS_RTOS/cmsis_os.c ****       break;
 1983              		.loc 1 957 7 is_stmt 1 view .LVU478
 1984 0054 00E0     		b	.L145
 1985              	.LVL157:
 1986              	.L150:
ARM GAS  /tmp/ccYrIPsY.s 			page 61


 939:Middlewares/Third_Party/FreeRTOS/Source/CMSIS_RTOS/cmsis_os.c ****   uint32_t i;
 1987              		.loc 1 939 9 is_stmt 0 view .LVU479
 1988 0056 0024     		movs	r4, #0
 1989              	.LVL158:
 1990              	.L145:
 958:Middlewares/Third_Party/FreeRTOS/Source/CMSIS_RTOS/cmsis_os.c ****     }
 959:Middlewares/Third_Party/FreeRTOS/Source/CMSIS_RTOS/cmsis_os.c ****   }
 960:Middlewares/Third_Party/FreeRTOS/Source/CMSIS_RTOS/cmsis_os.c ****   
 961:Middlewares/Third_Party/FreeRTOS/Source/CMSIS_RTOS/cmsis_os.c ****   if (inHandlerMode()) {
 1991              		.loc 1 961 3 is_stmt 1 view .LVU480
 1992              		.loc 1 961 7 is_stmt 0 view .LVU481
 1993 0058 FFF7FEFF 		bl	inHandlerMode
 1994              	.LVL159:
 1995              		.loc 1 961 6 view .LVU482
 1996 005c 18B1     		cbz	r0, .L147
 962:Middlewares/Third_Party/FreeRTOS/Source/CMSIS_RTOS/cmsis_os.c ****     portCLEAR_INTERRUPT_MASK_FROM_ISR(dummy);
 1997              		.loc 1 962 5 is_stmt 1 view .LVU483
 1998              	.LVL160:
 1999              	.LBB12:
 2000              	.LBI12:
 224:Middlewares/Third_Party/FreeRTOS/Source/portable/GCC/ARM_CM4F/portmacro.h **** }
 225:Middlewares/Third_Party/FreeRTOS/Source/portable/GCC/ARM_CM4F/portmacro.h **** /*-----------------------------------------------------------*/
 226:Middlewares/Third_Party/FreeRTOS/Source/portable/GCC/ARM_CM4F/portmacro.h **** 
 227:Middlewares/Third_Party/FreeRTOS/Source/portable/GCC/ARM_CM4F/portmacro.h **** portFORCE_INLINE static void vPortSetBASEPRI( uint32_t ulNewMaskValue )
 2001              		.loc 3 227 30 view .LVU484
 2002              	.LBB13:
 228:Middlewares/Third_Party/FreeRTOS/Source/portable/GCC/ARM_CM4F/portmacro.h **** {
 229:Middlewares/Third_Party/FreeRTOS/Source/portable/GCC/ARM_CM4F/portmacro.h **** 	__asm volatile
 2003              		.loc 3 229 2 view .LVU485
 2004              		.syntax unified
 2005              	@ 229 "Middlewares/Third_Party/FreeRTOS/Source/portable/GCC/ARM_CM4F/portmacro.h" 1
 2006 005e 86F31188 			msr basepri, r6	
 2007              	@ 0 "" 2
 2008              	.LVL161:
 2009              		.thumb
 2010              		.syntax unified
 2011              	.L140:
 2012              		.loc 3 229 2 is_stmt 0 view .LVU486
 2013              	.LBE13:
 2014              	.LBE12:
 963:Middlewares/Third_Party/FreeRTOS/Source/CMSIS_RTOS/cmsis_os.c ****   }
 964:Middlewares/Third_Party/FreeRTOS/Source/CMSIS_RTOS/cmsis_os.c ****   else {
 965:Middlewares/Third_Party/FreeRTOS/Source/CMSIS_RTOS/cmsis_os.c ****     vPortExitCritical();
 966:Middlewares/Third_Party/FreeRTOS/Source/CMSIS_RTOS/cmsis_os.c ****   }
 967:Middlewares/Third_Party/FreeRTOS/Source/CMSIS_RTOS/cmsis_os.c ****   
 968:Middlewares/Third_Party/FreeRTOS/Source/CMSIS_RTOS/cmsis_os.c ****   return p;
 969:Middlewares/Third_Party/FreeRTOS/Source/CMSIS_RTOS/cmsis_os.c **** }
 2015              		.loc 1 969 1 view .LVU487
 2016 0062 2046     		mov	r0, r4
 2017 0064 70BD     		pop	{r4, r5, r6, pc}
 2018              	.LVL162:
 2019              	.L147:
 965:Middlewares/Third_Party/FreeRTOS/Source/CMSIS_RTOS/cmsis_os.c ****   }
 2020              		.loc 1 965 5 is_stmt 1 view .LVU488
 2021 0066 FFF7FEFF 		bl	vPortExitCritical
 2022              	.LVL163:
 968:Middlewares/Third_Party/FreeRTOS/Source/CMSIS_RTOS/cmsis_os.c **** }
ARM GAS  /tmp/ccYrIPsY.s 			page 62


 2023              		.loc 1 968 3 view .LVU489
 968:Middlewares/Third_Party/FreeRTOS/Source/CMSIS_RTOS/cmsis_os.c **** }
 2024              		.loc 1 968 10 is_stmt 0 view .LVU490
 2025 006a FAE7     		b	.L140
 2026              		.cfi_endproc
 2027              	.LFE135:
 2029              		.section	.text.osPoolCAlloc,"ax",%progbits
 2030              		.align	1
 2031              		.global	osPoolCAlloc
 2032              		.syntax unified
 2033              		.thumb
 2034              		.thumb_func
 2035              		.fpu fpv4-sp-d16
 2037              	osPoolCAlloc:
 2038              	.LVL164:
 2039              	.LFB136:
 970:Middlewares/Third_Party/FreeRTOS/Source/CMSIS_RTOS/cmsis_os.c **** 
 971:Middlewares/Third_Party/FreeRTOS/Source/CMSIS_RTOS/cmsis_os.c **** /**
 972:Middlewares/Third_Party/FreeRTOS/Source/CMSIS_RTOS/cmsis_os.c **** * @brief Allocate a memory block from a memory pool and set memory block to zero
 973:Middlewares/Third_Party/FreeRTOS/Source/CMSIS_RTOS/cmsis_os.c **** * @param  pool_id       memory pool ID obtain referenced with \ref osPoolCreate.
 974:Middlewares/Third_Party/FreeRTOS/Source/CMSIS_RTOS/cmsis_os.c **** * @retval  address of the allocated memory block or NULL in case of no memory available.
 975:Middlewares/Third_Party/FreeRTOS/Source/CMSIS_RTOS/cmsis_os.c **** * @note   MUST REMAIN UNCHANGED: \b osPoolCAlloc shall be consistent in every CMSIS-RTOS.
 976:Middlewares/Third_Party/FreeRTOS/Source/CMSIS_RTOS/cmsis_os.c **** */
 977:Middlewares/Third_Party/FreeRTOS/Source/CMSIS_RTOS/cmsis_os.c **** void *osPoolCAlloc (osPoolId pool_id)
 978:Middlewares/Third_Party/FreeRTOS/Source/CMSIS_RTOS/cmsis_os.c **** {
 2040              		.loc 1 978 1 is_stmt 1 view -0
 2041              		.cfi_startproc
 2042              		@ args = 0, pretend = 0, frame = 0
 2043              		@ frame_needed = 0, uses_anonymous_args = 0
 2044              		.loc 1 978 1 is_stmt 0 view .LVU492
 2045 0000 08B5     		push	{r3, lr}
 2046              	.LCFI45:
 2047              		.cfi_def_cfa_offset 8
 2048              		.cfi_offset 3, -8
 2049              		.cfi_offset 14, -4
 979:Middlewares/Third_Party/FreeRTOS/Source/CMSIS_RTOS/cmsis_os.c ****   void *p = osPoolAlloc(pool_id);
 2050              		.loc 1 979 3 is_stmt 1 view .LVU493
 2051              		.loc 1 979 13 is_stmt 0 view .LVU494
 2052 0002 FFF7FEFF 		bl	osPoolAlloc
 2053              	.LVL165:
 980:Middlewares/Third_Party/FreeRTOS/Source/CMSIS_RTOS/cmsis_os.c ****   
 981:Middlewares/Third_Party/FreeRTOS/Source/CMSIS_RTOS/cmsis_os.c ****   if (p != NULL)
 2054              		.loc 1 981 3 is_stmt 1 view .LVU495
 2055              		.loc 1 981 6 is_stmt 0 view .LVU496
 2056 0006 08B1     		cbz	r0, .L152
 982:Middlewares/Third_Party/FreeRTOS/Source/CMSIS_RTOS/cmsis_os.c ****   {
 983:Middlewares/Third_Party/FreeRTOS/Source/CMSIS_RTOS/cmsis_os.c ****     memset(p, 0, sizeof(pool_id->pool_sz));
 2057              		.loc 1 983 5 is_stmt 1 view .LVU497
 2058 0008 0023     		movs	r3, #0
 2059 000a 0360     		str	r3, [r0]	@ unaligned
 984:Middlewares/Third_Party/FreeRTOS/Source/CMSIS_RTOS/cmsis_os.c ****   }
 985:Middlewares/Third_Party/FreeRTOS/Source/CMSIS_RTOS/cmsis_os.c ****   
 986:Middlewares/Third_Party/FreeRTOS/Source/CMSIS_RTOS/cmsis_os.c ****   return p;
 2060              		.loc 1 986 3 view .LVU498
 2061              	.L152:
 987:Middlewares/Third_Party/FreeRTOS/Source/CMSIS_RTOS/cmsis_os.c **** }
 2062              		.loc 1 987 1 is_stmt 0 view .LVU499
ARM GAS  /tmp/ccYrIPsY.s 			page 63


 2063 000c 08BD     		pop	{r3, pc}
 2064              		.cfi_endproc
 2065              	.LFE136:
 2067              		.section	.text.osPoolFree,"ax",%progbits
 2068              		.align	1
 2069              		.global	osPoolFree
 2070              		.syntax unified
 2071              		.thumb
 2072              		.thumb_func
 2073              		.fpu fpv4-sp-d16
 2075              	osPoolFree:
 2076              	.LVL166:
 2077              	.LFB137:
 988:Middlewares/Third_Party/FreeRTOS/Source/CMSIS_RTOS/cmsis_os.c **** 
 989:Middlewares/Third_Party/FreeRTOS/Source/CMSIS_RTOS/cmsis_os.c **** /**
 990:Middlewares/Third_Party/FreeRTOS/Source/CMSIS_RTOS/cmsis_os.c **** * @brief Return an allocated memory block back to a specific memory pool
 991:Middlewares/Third_Party/FreeRTOS/Source/CMSIS_RTOS/cmsis_os.c **** * @param  pool_id       memory pool ID obtain referenced with \ref osPoolCreate.
 992:Middlewares/Third_Party/FreeRTOS/Source/CMSIS_RTOS/cmsis_os.c **** * @param  block         address of the allocated memory block that is returned to the memory pool.
 993:Middlewares/Third_Party/FreeRTOS/Source/CMSIS_RTOS/cmsis_os.c **** * @retval  status code that indicates the execution status of the function.
 994:Middlewares/Third_Party/FreeRTOS/Source/CMSIS_RTOS/cmsis_os.c **** * @note   MUST REMAIN UNCHANGED: \b osPoolFree shall be consistent in every CMSIS-RTOS.
 995:Middlewares/Third_Party/FreeRTOS/Source/CMSIS_RTOS/cmsis_os.c **** */
 996:Middlewares/Third_Party/FreeRTOS/Source/CMSIS_RTOS/cmsis_os.c **** osStatus osPoolFree (osPoolId pool_id, void *block)
 997:Middlewares/Third_Party/FreeRTOS/Source/CMSIS_RTOS/cmsis_os.c **** {
 2078              		.loc 1 997 1 is_stmt 1 view -0
 2079              		.cfi_startproc
 2080              		@ args = 0, pretend = 0, frame = 0
 2081              		@ frame_needed = 0, uses_anonymous_args = 0
 2082              		@ link register save eliminated.
 998:Middlewares/Third_Party/FreeRTOS/Source/CMSIS_RTOS/cmsis_os.c ****   uint32_t index;
 2083              		.loc 1 998 3 view .LVU501
 999:Middlewares/Third_Party/FreeRTOS/Source/CMSIS_RTOS/cmsis_os.c ****   
1000:Middlewares/Third_Party/FreeRTOS/Source/CMSIS_RTOS/cmsis_os.c ****   if (pool_id == NULL) {
 2084              		.loc 1 1000 3 view .LVU502
 2085              		.loc 1 1000 6 is_stmt 0 view .LVU503
 2086 0000 0346     		mov	r3, r0
 2087 0002 98B1     		cbz	r0, .L157
1001:Middlewares/Third_Party/FreeRTOS/Source/CMSIS_RTOS/cmsis_os.c ****     return osErrorParameter;
1002:Middlewares/Third_Party/FreeRTOS/Source/CMSIS_RTOS/cmsis_os.c ****   }
1003:Middlewares/Third_Party/FreeRTOS/Source/CMSIS_RTOS/cmsis_os.c ****   
1004:Middlewares/Third_Party/FreeRTOS/Source/CMSIS_RTOS/cmsis_os.c ****   if (block == NULL) {
 2088              		.loc 1 1004 3 is_stmt 1 view .LVU504
 2089              		.loc 1 1004 6 is_stmt 0 view .LVU505
 2090 0004 A1B1     		cbz	r1, .L158
1005:Middlewares/Third_Party/FreeRTOS/Source/CMSIS_RTOS/cmsis_os.c ****     return osErrorParameter;
1006:Middlewares/Third_Party/FreeRTOS/Source/CMSIS_RTOS/cmsis_os.c ****   }
1007:Middlewares/Third_Party/FreeRTOS/Source/CMSIS_RTOS/cmsis_os.c ****   
1008:Middlewares/Third_Party/FreeRTOS/Source/CMSIS_RTOS/cmsis_os.c ****   if (block < pool_id->pool) {
 2091              		.loc 1 1008 3 is_stmt 1 view .LVU506
 2092              		.loc 1 1008 22 is_stmt 0 view .LVU507
 2093 0006 0268     		ldr	r2, [r0]
 2094              		.loc 1 1008 6 view .LVU508
 2095 0008 8A42     		cmp	r2, r1
 2096 000a 13D8     		bhi	.L159
1009:Middlewares/Third_Party/FreeRTOS/Source/CMSIS_RTOS/cmsis_os.c ****     return osErrorParameter;
1010:Middlewares/Third_Party/FreeRTOS/Source/CMSIS_RTOS/cmsis_os.c ****   }
1011:Middlewares/Third_Party/FreeRTOS/Source/CMSIS_RTOS/cmsis_os.c ****   
1012:Middlewares/Third_Party/FreeRTOS/Source/CMSIS_RTOS/cmsis_os.c ****   index = (uint32_t)block - (uint32_t)(pool_id->pool);
ARM GAS  /tmp/ccYrIPsY.s 			page 64


 2097              		.loc 1 1012 3 is_stmt 1 view .LVU509
 2098              		.loc 1 1012 9 is_stmt 0 view .LVU510
 2099 000c 891A     		subs	r1, r1, r2
 2100              	.LVL167:
1013:Middlewares/Third_Party/FreeRTOS/Source/CMSIS_RTOS/cmsis_os.c ****   if (index % pool_id->item_sz) {
 2101              		.loc 1 1013 3 is_stmt 1 view .LVU511
 2102              		.loc 1 1013 22 is_stmt 0 view .LVU512
 2103 000e C268     		ldr	r2, [r0, #12]
 2104              		.loc 1 1013 13 view .LVU513
 2105 0010 B1FBF2F0 		udiv	r0, r1, r2
 2106              	.LVL168:
 2107              		.loc 1 1013 13 view .LVU514
 2108 0014 02FB1010 		mls	r0, r2, r0, r1
 2109              		.loc 1 1013 6 view .LVU515
 2110 0018 70B9     		cbnz	r0, .L160
1014:Middlewares/Third_Party/FreeRTOS/Source/CMSIS_RTOS/cmsis_os.c ****     return osErrorParameter;
1015:Middlewares/Third_Party/FreeRTOS/Source/CMSIS_RTOS/cmsis_os.c ****   }
1016:Middlewares/Third_Party/FreeRTOS/Source/CMSIS_RTOS/cmsis_os.c ****   index = index / pool_id->item_sz;
 2111              		.loc 1 1016 3 is_stmt 1 view .LVU516
 2112              		.loc 1 1016 9 is_stmt 0 view .LVU517
 2113 001a B1FBF2F1 		udiv	r1, r1, r2
 2114              	.LVL169:
1017:Middlewares/Third_Party/FreeRTOS/Source/CMSIS_RTOS/cmsis_os.c ****   if (index >= pool_id->pool_sz) {
 2115              		.loc 1 1017 3 is_stmt 1 view .LVU518
 2116              		.loc 1 1017 23 is_stmt 0 view .LVU519
 2117 001e 9A68     		ldr	r2, [r3, #8]
 2118              		.loc 1 1017 6 view .LVU520
 2119 0020 8A42     		cmp	r2, r1
 2120 0022 0BD9     		bls	.L161
1018:Middlewares/Third_Party/FreeRTOS/Source/CMSIS_RTOS/cmsis_os.c ****     return osErrorParameter;
1019:Middlewares/Third_Party/FreeRTOS/Source/CMSIS_RTOS/cmsis_os.c ****   }
1020:Middlewares/Third_Party/FreeRTOS/Source/CMSIS_RTOS/cmsis_os.c ****   
1021:Middlewares/Third_Party/FreeRTOS/Source/CMSIS_RTOS/cmsis_os.c ****   pool_id->markers[index] = 0;
 2121              		.loc 1 1021 3 is_stmt 1 view .LVU521
 2122              		.loc 1 1021 10 is_stmt 0 view .LVU522
 2123 0024 5B68     		ldr	r3, [r3, #4]
 2124              	.LVL170:
 2125              		.loc 1 1021 27 view .LVU523
 2126 0026 0022     		movs	r2, #0
 2127 0028 5A54     		strb	r2, [r3, r1]
1022:Middlewares/Third_Party/FreeRTOS/Source/CMSIS_RTOS/cmsis_os.c ****   
1023:Middlewares/Third_Party/FreeRTOS/Source/CMSIS_RTOS/cmsis_os.c ****   return osOK;
 2128              		.loc 1 1023 3 is_stmt 1 view .LVU524
 2129              		.loc 1 1023 10 is_stmt 0 view .LVU525
 2130 002a 7047     		bx	lr
 2131              	.LVL171:
 2132              	.L157:
1001:Middlewares/Third_Party/FreeRTOS/Source/CMSIS_RTOS/cmsis_os.c ****   }
 2133              		.loc 1 1001 12 view .LVU526
 2134 002c 8020     		movs	r0, #128
 2135              	.LVL172:
1001:Middlewares/Third_Party/FreeRTOS/Source/CMSIS_RTOS/cmsis_os.c ****   }
 2136              		.loc 1 1001 12 view .LVU527
 2137 002e 7047     		bx	lr
 2138              	.LVL173:
 2139              	.L158:
1005:Middlewares/Third_Party/FreeRTOS/Source/CMSIS_RTOS/cmsis_os.c ****   }
ARM GAS  /tmp/ccYrIPsY.s 			page 65


 2140              		.loc 1 1005 12 view .LVU528
 2141 0030 8020     		movs	r0, #128
 2142              	.LVL174:
1005:Middlewares/Third_Party/FreeRTOS/Source/CMSIS_RTOS/cmsis_os.c ****   }
 2143              		.loc 1 1005 12 view .LVU529
 2144 0032 7047     		bx	lr
 2145              	.LVL175:
 2146              	.L159:
1009:Middlewares/Third_Party/FreeRTOS/Source/CMSIS_RTOS/cmsis_os.c ****   }
 2147              		.loc 1 1009 12 view .LVU530
 2148 0034 8020     		movs	r0, #128
 2149              	.LVL176:
1009:Middlewares/Third_Party/FreeRTOS/Source/CMSIS_RTOS/cmsis_os.c ****   }
 2150              		.loc 1 1009 12 view .LVU531
 2151 0036 7047     		bx	lr
 2152              	.LVL177:
 2153              	.L160:
1014:Middlewares/Third_Party/FreeRTOS/Source/CMSIS_RTOS/cmsis_os.c ****   }
 2154              		.loc 1 1014 12 view .LVU532
 2155 0038 8020     		movs	r0, #128
 2156 003a 7047     		bx	lr
 2157              	.L161:
1018:Middlewares/Third_Party/FreeRTOS/Source/CMSIS_RTOS/cmsis_os.c ****   }
 2158              		.loc 1 1018 12 view .LVU533
 2159 003c 8020     		movs	r0, #128
1024:Middlewares/Third_Party/FreeRTOS/Source/CMSIS_RTOS/cmsis_os.c **** }
 2160              		.loc 1 1024 1 view .LVU534
 2161 003e 7047     		bx	lr
 2162              		.cfi_endproc
 2163              	.LFE137:
 2165              		.section	.text.osMessageCreate,"ax",%progbits
 2166              		.align	1
 2167              		.global	osMessageCreate
 2168              		.syntax unified
 2169              		.thumb
 2170              		.thumb_func
 2171              		.fpu fpv4-sp-d16
 2173              	osMessageCreate:
 2174              	.LVL178:
 2175              	.LFB138:
1025:Middlewares/Third_Party/FreeRTOS/Source/CMSIS_RTOS/cmsis_os.c **** 
1026:Middlewares/Third_Party/FreeRTOS/Source/CMSIS_RTOS/cmsis_os.c **** 
1027:Middlewares/Third_Party/FreeRTOS/Source/CMSIS_RTOS/cmsis_os.c **** #endif   /* Use Memory Pool Management */
1028:Middlewares/Third_Party/FreeRTOS/Source/CMSIS_RTOS/cmsis_os.c **** 
1029:Middlewares/Third_Party/FreeRTOS/Source/CMSIS_RTOS/cmsis_os.c **** /*******************   Message Queue Management Functions  *********************/
1030:Middlewares/Third_Party/FreeRTOS/Source/CMSIS_RTOS/cmsis_os.c **** 
1031:Middlewares/Third_Party/FreeRTOS/Source/CMSIS_RTOS/cmsis_os.c **** #if (defined (osFeature_MessageQ)  &&  (osFeature_MessageQ != 0)) /* Use Message Queues */
1032:Middlewares/Third_Party/FreeRTOS/Source/CMSIS_RTOS/cmsis_os.c **** 
1033:Middlewares/Third_Party/FreeRTOS/Source/CMSIS_RTOS/cmsis_os.c **** /**
1034:Middlewares/Third_Party/FreeRTOS/Source/CMSIS_RTOS/cmsis_os.c **** * @brief Create and Initialize a Message Queue
1035:Middlewares/Third_Party/FreeRTOS/Source/CMSIS_RTOS/cmsis_os.c **** * @param queue_def     queue definition referenced with \ref osMessageQ.
1036:Middlewares/Third_Party/FreeRTOS/Source/CMSIS_RTOS/cmsis_os.c **** * @param  thread_id     thread ID (obtained by \ref osThreadCreate or \ref osThreadGetId) or NULL.
1037:Middlewares/Third_Party/FreeRTOS/Source/CMSIS_RTOS/cmsis_os.c **** * @retval  message queue ID for reference by other functions or NULL in case of error.
1038:Middlewares/Third_Party/FreeRTOS/Source/CMSIS_RTOS/cmsis_os.c **** * @note   MUST REMAIN UNCHANGED: \b osMessageCreate shall be consistent in every CMSIS-RTOS.
1039:Middlewares/Third_Party/FreeRTOS/Source/CMSIS_RTOS/cmsis_os.c **** */
1040:Middlewares/Third_Party/FreeRTOS/Source/CMSIS_RTOS/cmsis_os.c **** osMessageQId osMessageCreate (const osMessageQDef_t *queue_def, osThreadId thread_id)
1041:Middlewares/Third_Party/FreeRTOS/Source/CMSIS_RTOS/cmsis_os.c **** {
ARM GAS  /tmp/ccYrIPsY.s 			page 66


 2176              		.loc 1 1041 1 is_stmt 1 view -0
 2177              		.cfi_startproc
 2178              		@ args = 0, pretend = 0, frame = 0
 2179              		@ frame_needed = 0, uses_anonymous_args = 0
 2180              		.loc 1 1041 1 is_stmt 0 view .LVU536
 2181 0000 00B5     		push	{lr}
 2182              	.LCFI46:
 2183              		.cfi_def_cfa_offset 4
 2184              		.cfi_offset 14, -4
 2185 0002 83B0     		sub	sp, sp, #12
 2186              	.LCFI47:
 2187              		.cfi_def_cfa_offset 16
1042:Middlewares/Third_Party/FreeRTOS/Source/CMSIS_RTOS/cmsis_os.c ****   (void) thread_id;
 2188              		.loc 1 1042 3 is_stmt 1 view .LVU537
1043:Middlewares/Third_Party/FreeRTOS/Source/CMSIS_RTOS/cmsis_os.c ****   
1044:Middlewares/Third_Party/FreeRTOS/Source/CMSIS_RTOS/cmsis_os.c **** #if( configSUPPORT_STATIC_ALLOCATION == 1 ) && ( configSUPPORT_DYNAMIC_ALLOCATION == 1 )
1045:Middlewares/Third_Party/FreeRTOS/Source/CMSIS_RTOS/cmsis_os.c **** 
1046:Middlewares/Third_Party/FreeRTOS/Source/CMSIS_RTOS/cmsis_os.c ****   if ((queue_def->buffer != NULL) && (queue_def->controlblock != NULL)) {
 2189              		.loc 1 1046 3 view .LVU538
 2190              		.loc 1 1046 17 is_stmt 0 view .LVU539
 2191 0004 8268     		ldr	r2, [r0, #8]
 2192              		.loc 1 1046 6 view .LVU540
 2193 0006 42B1     		cbz	r2, .L163
 2194              		.loc 1 1046 48 discriminator 1 view .LVU541
 2195 0008 C368     		ldr	r3, [r0, #12]
 2196              		.loc 1 1046 35 discriminator 1 view .LVU542
 2197 000a 33B1     		cbz	r3, .L163
1047:Middlewares/Third_Party/FreeRTOS/Source/CMSIS_RTOS/cmsis_os.c ****     return xQueueCreateStatic(queue_def->queue_sz, queue_def->item_sz, queue_def->buffer, queue_def
 2198              		.loc 1 1047 5 is_stmt 1 view .LVU543
 2199              		.loc 1 1047 12 is_stmt 0 view .LVU544
 2200 000c 0021     		movs	r1, #0
 2201              	.LVL179:
 2202              		.loc 1 1047 12 view .LVU545
 2203 000e 0091     		str	r1, [sp]
 2204 0010 4168     		ldr	r1, [r0, #4]
 2205 0012 0068     		ldr	r0, [r0]
 2206              	.LVL180:
 2207              		.loc 1 1047 12 view .LVU546
 2208 0014 FFF7FEFF 		bl	xQueueGenericCreateStatic
 2209              	.LVL181:
 2210 0018 04E0     		b	.L162
 2211              	.LVL182:
 2212              	.L163:
1048:Middlewares/Third_Party/FreeRTOS/Source/CMSIS_RTOS/cmsis_os.c ****   }
1049:Middlewares/Third_Party/FreeRTOS/Source/CMSIS_RTOS/cmsis_os.c ****   else {
1050:Middlewares/Third_Party/FreeRTOS/Source/CMSIS_RTOS/cmsis_os.c ****     return xQueueCreate(queue_def->queue_sz, queue_def->item_sz);
 2213              		.loc 1 1050 5 is_stmt 1 view .LVU547
 2214              		.loc 1 1050 12 is_stmt 0 view .LVU548
 2215 001a 0022     		movs	r2, #0
 2216 001c 4168     		ldr	r1, [r0, #4]
 2217              	.LVL183:
 2218              		.loc 1 1050 12 view .LVU549
 2219 001e 0068     		ldr	r0, [r0]
 2220              	.LVL184:
 2221              		.loc 1 1050 12 view .LVU550
 2222 0020 FFF7FEFF 		bl	xQueueGenericCreate
 2223              	.LVL185:
ARM GAS  /tmp/ccYrIPsY.s 			page 67


 2224              	.L162:
1051:Middlewares/Third_Party/FreeRTOS/Source/CMSIS_RTOS/cmsis_os.c ****   }
1052:Middlewares/Third_Party/FreeRTOS/Source/CMSIS_RTOS/cmsis_os.c **** #elif ( configSUPPORT_STATIC_ALLOCATION == 1 )
1053:Middlewares/Third_Party/FreeRTOS/Source/CMSIS_RTOS/cmsis_os.c ****   return xQueueCreateStatic(queue_def->queue_sz, queue_def->item_sz, queue_def->buffer, queue_def->
1054:Middlewares/Third_Party/FreeRTOS/Source/CMSIS_RTOS/cmsis_os.c **** #else  
1055:Middlewares/Third_Party/FreeRTOS/Source/CMSIS_RTOS/cmsis_os.c ****   return xQueueCreate(queue_def->queue_sz, queue_def->item_sz);
1056:Middlewares/Third_Party/FreeRTOS/Source/CMSIS_RTOS/cmsis_os.c **** #endif
1057:Middlewares/Third_Party/FreeRTOS/Source/CMSIS_RTOS/cmsis_os.c **** }
 2225              		.loc 1 1057 1 view .LVU551
 2226 0024 03B0     		add	sp, sp, #12
 2227              	.LCFI48:
 2228              		.cfi_def_cfa_offset 4
 2229              		@ sp needed
 2230 0026 5DF804FB 		ldr	pc, [sp], #4
 2231              		.cfi_endproc
 2232              	.LFE138:
 2234              		.section	.text.osMessagePut,"ax",%progbits
 2235              		.align	1
 2236              		.global	osMessagePut
 2237              		.syntax unified
 2238              		.thumb
 2239              		.thumb_func
 2240              		.fpu fpv4-sp-d16
 2242              	osMessagePut:
 2243              	.LVL186:
 2244              	.LFB139:
1058:Middlewares/Third_Party/FreeRTOS/Source/CMSIS_RTOS/cmsis_os.c **** 
1059:Middlewares/Third_Party/FreeRTOS/Source/CMSIS_RTOS/cmsis_os.c **** /**
1060:Middlewares/Third_Party/FreeRTOS/Source/CMSIS_RTOS/cmsis_os.c **** * @brief Put a Message to a Queue.
1061:Middlewares/Third_Party/FreeRTOS/Source/CMSIS_RTOS/cmsis_os.c **** * @param  queue_id  message queue ID obtained with \ref osMessageCreate.
1062:Middlewares/Third_Party/FreeRTOS/Source/CMSIS_RTOS/cmsis_os.c **** * @param  info      message information.
1063:Middlewares/Third_Party/FreeRTOS/Source/CMSIS_RTOS/cmsis_os.c **** * @param  millisec  timeout value or 0 in case of no time-out.
1064:Middlewares/Third_Party/FreeRTOS/Source/CMSIS_RTOS/cmsis_os.c **** * @retval status code that indicates the execution status of the function.
1065:Middlewares/Third_Party/FreeRTOS/Source/CMSIS_RTOS/cmsis_os.c **** * @note   MUST REMAIN UNCHANGED: \b osMessagePut shall be consistent in every CMSIS-RTOS.
1066:Middlewares/Third_Party/FreeRTOS/Source/CMSIS_RTOS/cmsis_os.c **** */
1067:Middlewares/Third_Party/FreeRTOS/Source/CMSIS_RTOS/cmsis_os.c **** osStatus osMessagePut (osMessageQId queue_id, uint32_t info, uint32_t millisec)
1068:Middlewares/Third_Party/FreeRTOS/Source/CMSIS_RTOS/cmsis_os.c **** {
 2245              		.loc 1 1068 1 is_stmt 1 view -0
 2246              		.cfi_startproc
 2247              		@ args = 0, pretend = 0, frame = 16
 2248              		@ frame_needed = 0, uses_anonymous_args = 0
 2249              		.loc 1 1068 1 is_stmt 0 view .LVU553
 2250 0000 30B5     		push	{r4, r5, lr}
 2251              	.LCFI49:
 2252              		.cfi_def_cfa_offset 12
 2253              		.cfi_offset 4, -12
 2254              		.cfi_offset 5, -8
 2255              		.cfi_offset 14, -4
 2256 0002 85B0     		sub	sp, sp, #20
 2257              	.LCFI50:
 2258              		.cfi_def_cfa_offset 32
 2259 0004 0546     		mov	r5, r0
 2260 0006 0191     		str	r1, [sp, #4]
1069:Middlewares/Third_Party/FreeRTOS/Source/CMSIS_RTOS/cmsis_os.c ****   portBASE_TYPE taskWoken = pdFALSE;
 2261              		.loc 1 1069 3 is_stmt 1 view .LVU554
 2262              		.loc 1 1069 17 is_stmt 0 view .LVU555
 2263 0008 0023     		movs	r3, #0
ARM GAS  /tmp/ccYrIPsY.s 			page 68


 2264 000a 0393     		str	r3, [sp, #12]
1070:Middlewares/Third_Party/FreeRTOS/Source/CMSIS_RTOS/cmsis_os.c ****   TickType_t ticks;
 2265              		.loc 1 1070 3 is_stmt 1 view .LVU556
1071:Middlewares/Third_Party/FreeRTOS/Source/CMSIS_RTOS/cmsis_os.c ****   
1072:Middlewares/Third_Party/FreeRTOS/Source/CMSIS_RTOS/cmsis_os.c ****   ticks = millisec / portTICK_PERIOD_MS;
 2266              		.loc 1 1072 3 view .LVU557
 2267              		.loc 1 1072 9 is_stmt 0 view .LVU558
 2268 000c 174C     		ldr	r4, .L175
 2269 000e A4FB0234 		umull	r3, r4, r4, r2
 2270 0012 E408     		lsrs	r4, r4, #3
 2271              	.LVL187:
1073:Middlewares/Third_Party/FreeRTOS/Source/CMSIS_RTOS/cmsis_os.c ****   if (ticks == 0) {
 2272              		.loc 1 1073 3 is_stmt 1 view .LVU559
 2273              		.loc 1 1073 6 is_stmt 0 view .LVU560
 2274 0014 092A     		cmp	r2, #9
 2275 0016 00D8     		bhi	.L167
1074:Middlewares/Third_Party/FreeRTOS/Source/CMSIS_RTOS/cmsis_os.c ****     ticks = 1;
 2276              		.loc 1 1074 11 view .LVU561
 2277 0018 0124     		movs	r4, #1
 2278              	.LVL188:
 2279              	.L167:
1075:Middlewares/Third_Party/FreeRTOS/Source/CMSIS_RTOS/cmsis_os.c ****   }
1076:Middlewares/Third_Party/FreeRTOS/Source/CMSIS_RTOS/cmsis_os.c ****   
1077:Middlewares/Third_Party/FreeRTOS/Source/CMSIS_RTOS/cmsis_os.c ****   if (inHandlerMode()) {
 2280              		.loc 1 1077 3 is_stmt 1 view .LVU562
 2281              		.loc 1 1077 7 is_stmt 0 view .LVU563
 2282 001a FFF7FEFF 		bl	inHandlerMode
 2283              	.LVL189:
 2284              		.loc 1 1077 6 view .LVU564
 2285 001e 98B1     		cbz	r0, .L168
1078:Middlewares/Third_Party/FreeRTOS/Source/CMSIS_RTOS/cmsis_os.c ****     if (xQueueSendFromISR(queue_id, &info, &taskWoken) != pdTRUE) {
 2286              		.loc 1 1078 5 is_stmt 1 view .LVU565
 2287              		.loc 1 1078 9 is_stmt 0 view .LVU566
 2288 0020 0023     		movs	r3, #0
 2289 0022 03AA     		add	r2, sp, #12
 2290 0024 01A9     		add	r1, sp, #4
 2291 0026 2846     		mov	r0, r5
 2292 0028 FFF7FEFF 		bl	xQueueGenericSendFromISR
 2293              	.LVL190:
 2294              		.loc 1 1078 8 view .LVU567
 2295 002c 0128     		cmp	r0, #1
 2296 002e 16D1     		bne	.L171
1079:Middlewares/Third_Party/FreeRTOS/Source/CMSIS_RTOS/cmsis_os.c ****       return osErrorOS;
1080:Middlewares/Third_Party/FreeRTOS/Source/CMSIS_RTOS/cmsis_os.c ****     }
1081:Middlewares/Third_Party/FreeRTOS/Source/CMSIS_RTOS/cmsis_os.c ****     portEND_SWITCHING_ISR(taskWoken);
 2297              		.loc 1 1081 5 is_stmt 1 view .LVU568
 2298 0030 039B     		ldr	r3, [sp, #12]
 2299 0032 B3B1     		cbz	r3, .L172
 2300              		.loc 1 1081 5 discriminator 1 view .LVU569
 2301 0034 0E4B     		ldr	r3, .L175+4
 2302 0036 4FF08052 		mov	r2, #268435456
 2303 003a 1A60     		str	r2, [r3]
 2304              		.loc 1 1081 5 discriminator 1 view .LVU570
 2305              		.syntax unified
 2306              	@ 1081 "Middlewares/Third_Party/FreeRTOS/Source/CMSIS_RTOS/cmsis_os.c" 1
 2307 003c BFF34F8F 		dsb
 2308              	@ 0 "" 2
ARM GAS  /tmp/ccYrIPsY.s 			page 69


 2309              		.loc 1 1081 5 discriminator 1 view .LVU571
 2310              	@ 1081 "Middlewares/Third_Party/FreeRTOS/Source/CMSIS_RTOS/cmsis_os.c" 1
 2311 0040 BFF36F8F 		isb
 2312              	@ 0 "" 2
1082:Middlewares/Third_Party/FreeRTOS/Source/CMSIS_RTOS/cmsis_os.c ****   }
1083:Middlewares/Third_Party/FreeRTOS/Source/CMSIS_RTOS/cmsis_os.c ****   else {
1084:Middlewares/Third_Party/FreeRTOS/Source/CMSIS_RTOS/cmsis_os.c ****     if (xQueueSend(queue_id, &info, ticks) != pdTRUE) {
1085:Middlewares/Third_Party/FreeRTOS/Source/CMSIS_RTOS/cmsis_os.c ****       return osErrorOS;
1086:Middlewares/Third_Party/FreeRTOS/Source/CMSIS_RTOS/cmsis_os.c ****     }
1087:Middlewares/Third_Party/FreeRTOS/Source/CMSIS_RTOS/cmsis_os.c ****   }
1088:Middlewares/Third_Party/FreeRTOS/Source/CMSIS_RTOS/cmsis_os.c ****   
1089:Middlewares/Third_Party/FreeRTOS/Source/CMSIS_RTOS/cmsis_os.c ****   return osOK;
 2313              		.loc 1 1089 10 is_stmt 0 discriminator 1 view .LVU572
 2314              		.thumb
 2315              		.syntax unified
 2316 0044 0020     		movs	r0, #0
 2317 0046 08E0     		b	.L166
 2318              	.L168:
1084:Middlewares/Third_Party/FreeRTOS/Source/CMSIS_RTOS/cmsis_os.c ****       return osErrorOS;
 2319              		.loc 1 1084 5 is_stmt 1 view .LVU573
1084:Middlewares/Third_Party/FreeRTOS/Source/CMSIS_RTOS/cmsis_os.c ****       return osErrorOS;
 2320              		.loc 1 1084 9 is_stmt 0 view .LVU574
 2321 0048 0023     		movs	r3, #0
 2322 004a 2246     		mov	r2, r4
 2323 004c 01A9     		add	r1, sp, #4
 2324 004e 2846     		mov	r0, r5
 2325 0050 FFF7FEFF 		bl	xQueueGenericSend
 2326              	.LVL191:
1084:Middlewares/Third_Party/FreeRTOS/Source/CMSIS_RTOS/cmsis_os.c ****       return osErrorOS;
 2327              		.loc 1 1084 8 view .LVU575
 2328 0054 0128     		cmp	r0, #1
 2329 0056 06D1     		bne	.L173
 2330              		.loc 1 1089 10 view .LVU576
 2331 0058 0020     		movs	r0, #0
 2332              	.L166:
1090:Middlewares/Third_Party/FreeRTOS/Source/CMSIS_RTOS/cmsis_os.c **** }
 2333              		.loc 1 1090 1 view .LVU577
 2334 005a 05B0     		add	sp, sp, #20
 2335              	.LCFI51:
 2336              		.cfi_remember_state
 2337              		.cfi_def_cfa_offset 12
 2338              		@ sp needed
 2339 005c 30BD     		pop	{r4, r5, pc}
 2340              	.LVL192:
 2341              	.L171:
 2342              	.LCFI52:
 2343              		.cfi_restore_state
1079:Middlewares/Third_Party/FreeRTOS/Source/CMSIS_RTOS/cmsis_os.c ****     }
 2344              		.loc 1 1079 14 view .LVU578
 2345 005e FF20     		movs	r0, #255
 2346 0060 FBE7     		b	.L166
 2347              	.L172:
1089:Middlewares/Third_Party/FreeRTOS/Source/CMSIS_RTOS/cmsis_os.c **** }
 2348              		.loc 1 1089 10 view .LVU579
 2349 0062 0020     		movs	r0, #0
 2350 0064 F9E7     		b	.L166
 2351              	.L173:
ARM GAS  /tmp/ccYrIPsY.s 			page 70


1085:Middlewares/Third_Party/FreeRTOS/Source/CMSIS_RTOS/cmsis_os.c ****     }
 2352              		.loc 1 1085 14 view .LVU580
 2353 0066 FF20     		movs	r0, #255
 2354 0068 F7E7     		b	.L166
 2355              	.L176:
 2356 006a 00BF     		.align	2
 2357              	.L175:
 2358 006c CDCCCCCC 		.word	-858993459
 2359 0070 04ED00E0 		.word	-536810236
 2360              		.cfi_endproc
 2361              	.LFE139:
 2363              		.section	.text.osMessageGet,"ax",%progbits
 2364              		.align	1
 2365              		.global	osMessageGet
 2366              		.syntax unified
 2367              		.thumb
 2368              		.thumb_func
 2369              		.fpu fpv4-sp-d16
 2371              	osMessageGet:
 2372              	.LVL193:
 2373              	.LFB140:
1091:Middlewares/Third_Party/FreeRTOS/Source/CMSIS_RTOS/cmsis_os.c **** 
1092:Middlewares/Third_Party/FreeRTOS/Source/CMSIS_RTOS/cmsis_os.c **** /**
1093:Middlewares/Third_Party/FreeRTOS/Source/CMSIS_RTOS/cmsis_os.c **** * @brief Get a Message or Wait for a Message from a Queue.
1094:Middlewares/Third_Party/FreeRTOS/Source/CMSIS_RTOS/cmsis_os.c **** * @param  queue_id  message queue ID obtained with \ref osMessageCreate.
1095:Middlewares/Third_Party/FreeRTOS/Source/CMSIS_RTOS/cmsis_os.c **** * @param  millisec  timeout value or 0 in case of no time-out.
1096:Middlewares/Third_Party/FreeRTOS/Source/CMSIS_RTOS/cmsis_os.c **** * @retval event information that includes status code.
1097:Middlewares/Third_Party/FreeRTOS/Source/CMSIS_RTOS/cmsis_os.c **** * @note   MUST REMAIN UNCHANGED: \b osMessageGet shall be consistent in every CMSIS-RTOS.
1098:Middlewares/Third_Party/FreeRTOS/Source/CMSIS_RTOS/cmsis_os.c **** */
1099:Middlewares/Third_Party/FreeRTOS/Source/CMSIS_RTOS/cmsis_os.c **** osEvent osMessageGet (osMessageQId queue_id, uint32_t millisec)
1100:Middlewares/Third_Party/FreeRTOS/Source/CMSIS_RTOS/cmsis_os.c **** {
 2374              		.loc 1 1100 1 is_stmt 1 view -0
 2375              		.cfi_startproc
 2376              		@ args = 0, pretend = 0, frame = 16
 2377              		@ frame_needed = 0, uses_anonymous_args = 0
 2378              		.loc 1 1100 1 is_stmt 0 view .LVU582
 2379 0000 70B5     		push	{r4, r5, r6, lr}
 2380              	.LCFI53:
 2381              		.cfi_def_cfa_offset 16
 2382              		.cfi_offset 4, -16
 2383              		.cfi_offset 5, -12
 2384              		.cfi_offset 6, -8
 2385              		.cfi_offset 14, -4
 2386 0002 84B0     		sub	sp, sp, #16
 2387              	.LCFI54:
 2388              		.cfi_def_cfa_offset 32
 2389 0004 0446     		mov	r4, r0
1101:Middlewares/Third_Party/FreeRTOS/Source/CMSIS_RTOS/cmsis_os.c ****   portBASE_TYPE taskWoken;
 2390              		.loc 1 1101 3 is_stmt 1 view .LVU583
1102:Middlewares/Third_Party/FreeRTOS/Source/CMSIS_RTOS/cmsis_os.c ****   TickType_t ticks;
 2391              		.loc 1 1102 3 view .LVU584
1103:Middlewares/Third_Party/FreeRTOS/Source/CMSIS_RTOS/cmsis_os.c ****   osEvent event;
 2392              		.loc 1 1103 3 view .LVU585
1104:Middlewares/Third_Party/FreeRTOS/Source/CMSIS_RTOS/cmsis_os.c ****   
1105:Middlewares/Third_Party/FreeRTOS/Source/CMSIS_RTOS/cmsis_os.c ****   event.def.message_id = queue_id;
 2393              		.loc 1 1105 3 view .LVU586
 2394              		.loc 1 1105 24 is_stmt 0 view .LVU587
ARM GAS  /tmp/ccYrIPsY.s 			page 71


 2395 0006 0291     		str	r1, [sp, #8]
1106:Middlewares/Third_Party/FreeRTOS/Source/CMSIS_RTOS/cmsis_os.c ****   event.value.v = 0;
 2396              		.loc 1 1106 3 is_stmt 1 view .LVU588
 2397              		.loc 1 1106 17 is_stmt 0 view .LVU589
 2398 0008 0023     		movs	r3, #0
 2399 000a 0193     		str	r3, [sp, #4]
1107:Middlewares/Third_Party/FreeRTOS/Source/CMSIS_RTOS/cmsis_os.c ****   
1108:Middlewares/Third_Party/FreeRTOS/Source/CMSIS_RTOS/cmsis_os.c ****   if (queue_id == NULL) {
 2400              		.loc 1 1108 3 is_stmt 1 view .LVU590
 2401              		.loc 1 1108 6 is_stmt 0 view .LVU591
 2402 000c 31B3     		cbz	r1, .L190
 2403 000e 0E46     		mov	r6, r1
 2404 0010 1546     		mov	r5, r2
1109:Middlewares/Third_Party/FreeRTOS/Source/CMSIS_RTOS/cmsis_os.c ****     event.status = osErrorParameter;
1110:Middlewares/Third_Party/FreeRTOS/Source/CMSIS_RTOS/cmsis_os.c ****     return event;
1111:Middlewares/Third_Party/FreeRTOS/Source/CMSIS_RTOS/cmsis_os.c ****   }
1112:Middlewares/Third_Party/FreeRTOS/Source/CMSIS_RTOS/cmsis_os.c ****   
1113:Middlewares/Third_Party/FreeRTOS/Source/CMSIS_RTOS/cmsis_os.c ****   taskWoken = pdFALSE;
 2405              		.loc 1 1113 3 is_stmt 1 view .LVU592
 2406              		.loc 1 1113 13 is_stmt 0 view .LVU593
 2407 0012 0023     		movs	r3, #0
 2408 0014 0393     		str	r3, [sp, #12]
1114:Middlewares/Third_Party/FreeRTOS/Source/CMSIS_RTOS/cmsis_os.c ****   
1115:Middlewares/Third_Party/FreeRTOS/Source/CMSIS_RTOS/cmsis_os.c ****   ticks = 0;
 2409              		.loc 1 1115 3 is_stmt 1 view .LVU594
 2410              	.LVL194:
1116:Middlewares/Third_Party/FreeRTOS/Source/CMSIS_RTOS/cmsis_os.c ****   if (millisec == osWaitForever) {
 2411              		.loc 1 1116 3 view .LVU595
 2412              		.loc 1 1116 6 is_stmt 0 view .LVU596
 2413 0016 B2F1FF3F 		cmp	r2, #-1
 2414 001a 08D0     		beq	.L180
1117:Middlewares/Third_Party/FreeRTOS/Source/CMSIS_RTOS/cmsis_os.c ****     ticks = portMAX_DELAY;
1118:Middlewares/Third_Party/FreeRTOS/Source/CMSIS_RTOS/cmsis_os.c ****   }
1119:Middlewares/Third_Party/FreeRTOS/Source/CMSIS_RTOS/cmsis_os.c ****   else if (millisec != 0) {
 2415              		.loc 1 1119 8 is_stmt 1 view .LVU597
 2416              		.loc 1 1119 11 is_stmt 0 view .LVU598
 2417 001c 3AB1     		cbz	r2, .L180
1120:Middlewares/Third_Party/FreeRTOS/Source/CMSIS_RTOS/cmsis_os.c ****     ticks = millisec / portTICK_PERIOD_MS;
 2418              		.loc 1 1120 5 is_stmt 1 view .LVU599
 2419              		.loc 1 1120 11 is_stmt 0 view .LVU600
 2420 001e A3F13333 		sub	r3, r3, #858993459
 2421 0022 A3FB0523 		umull	r2, r3, r3, r5
 2422              	.LVL195:
 2423              		.loc 1 1120 11 view .LVU601
 2424 0026 DB08     		lsrs	r3, r3, #3
 2425              	.LVL196:
1121:Middlewares/Third_Party/FreeRTOS/Source/CMSIS_RTOS/cmsis_os.c ****     if (ticks == 0) {
 2426              		.loc 1 1121 5 is_stmt 1 view .LVU602
 2427              		.loc 1 1121 8 is_stmt 0 view .LVU603
 2428 0028 092D     		cmp	r5, #9
 2429 002a 1FD9     		bls	.L187
1120:Middlewares/Third_Party/FreeRTOS/Source/CMSIS_RTOS/cmsis_os.c ****     ticks = millisec / portTICK_PERIOD_MS;
 2430              		.loc 1 1120 11 view .LVU604
 2431 002c 1D46     		mov	r5, r3
 2432              	.LVL197:
 2433              	.L180:
1122:Middlewares/Third_Party/FreeRTOS/Source/CMSIS_RTOS/cmsis_os.c ****       ticks = 1;
ARM GAS  /tmp/ccYrIPsY.s 			page 72


1123:Middlewares/Third_Party/FreeRTOS/Source/CMSIS_RTOS/cmsis_os.c ****     }
1124:Middlewares/Third_Party/FreeRTOS/Source/CMSIS_RTOS/cmsis_os.c ****   }
1125:Middlewares/Third_Party/FreeRTOS/Source/CMSIS_RTOS/cmsis_os.c ****   
1126:Middlewares/Third_Party/FreeRTOS/Source/CMSIS_RTOS/cmsis_os.c ****   if (inHandlerMode()) {
 2434              		.loc 1 1126 3 is_stmt 1 view .LVU605
 2435              		.loc 1 1126 7 is_stmt 0 view .LVU606
 2436 002e FFF7FEFF 		bl	inHandlerMode
 2437              	.LVL198:
 2438              		.loc 1 1126 6 view .LVU607
 2439 0032 00B3     		cbz	r0, .L181
1127:Middlewares/Third_Party/FreeRTOS/Source/CMSIS_RTOS/cmsis_os.c ****     if (xQueueReceiveFromISR(queue_id, &event.value.v, &taskWoken) == pdTRUE) {
 2440              		.loc 1 1127 5 is_stmt 1 view .LVU608
 2441              		.loc 1 1127 9 is_stmt 0 view .LVU609
 2442 0034 03AA     		add	r2, sp, #12
 2443 0036 01A9     		add	r1, sp, #4
 2444 0038 3046     		mov	r0, r6
 2445 003a FFF7FEFF 		bl	xQueueReceiveFromISR
 2446              	.LVL199:
 2447              		.loc 1 1127 8 view .LVU610
 2448 003e 0128     		cmp	r0, #1
 2449 0040 16D0     		beq	.L191
1128:Middlewares/Third_Party/FreeRTOS/Source/CMSIS_RTOS/cmsis_os.c ****       /* We have mail */
1129:Middlewares/Third_Party/FreeRTOS/Source/CMSIS_RTOS/cmsis_os.c ****       event.status = osEventMessage;
1130:Middlewares/Third_Party/FreeRTOS/Source/CMSIS_RTOS/cmsis_os.c ****     }
1131:Middlewares/Third_Party/FreeRTOS/Source/CMSIS_RTOS/cmsis_os.c ****     else {
1132:Middlewares/Third_Party/FreeRTOS/Source/CMSIS_RTOS/cmsis_os.c ****       event.status = osOK;
 2450              		.loc 1 1132 7 is_stmt 1 view .LVU611
 2451              		.loc 1 1132 20 is_stmt 0 view .LVU612
 2452 0042 0023     		movs	r3, #0
 2453 0044 0093     		str	r3, [sp]
 2454              	.L183:
1133:Middlewares/Third_Party/FreeRTOS/Source/CMSIS_RTOS/cmsis_os.c ****     }
1134:Middlewares/Third_Party/FreeRTOS/Source/CMSIS_RTOS/cmsis_os.c ****     portEND_SWITCHING_ISR(taskWoken);
 2455              		.loc 1 1134 5 is_stmt 1 view .LVU613
 2456 0046 039B     		ldr	r3, [sp, #12]
 2457 0048 FBB1     		cbz	r3, .L184
 2458              		.loc 1 1134 5 discriminator 1 view .LVU614
 2459 004a 154B     		ldr	r3, .L193
 2460 004c 4FF08052 		mov	r2, #268435456
 2461 0050 1A60     		str	r2, [r3]
 2462              		.loc 1 1134 5 discriminator 1 view .LVU615
 2463              		.syntax unified
 2464              	@ 1134 "Middlewares/Third_Party/FreeRTOS/Source/CMSIS_RTOS/cmsis_os.c" 1
 2465 0052 BFF34F8F 		dsb
 2466              	@ 0 "" 2
 2467              		.loc 1 1134 5 discriminator 1 view .LVU616
 2468              	@ 1134 "Middlewares/Third_Party/FreeRTOS/Source/CMSIS_RTOS/cmsis_os.c" 1
 2469 0056 BFF36F8F 		isb
 2470              	@ 0 "" 2
 2471              		.thumb
 2472              		.syntax unified
 2473 005a 16E0     		b	.L184
 2474              	.LVL200:
 2475              	.L190:
1109:Middlewares/Third_Party/FreeRTOS/Source/CMSIS_RTOS/cmsis_os.c ****     return event;
 2476              		.loc 1 1109 5 view .LVU617
1109:Middlewares/Third_Party/FreeRTOS/Source/CMSIS_RTOS/cmsis_os.c ****     return event;
ARM GAS  /tmp/ccYrIPsY.s 			page 73


 2477              		.loc 1 1109 18 is_stmt 0 view .LVU618
 2478 005c 8023     		movs	r3, #128
 2479 005e 0093     		str	r3, [sp]
1110:Middlewares/Third_Party/FreeRTOS/Source/CMSIS_RTOS/cmsis_os.c ****   }
 2480              		.loc 1 1110 5 is_stmt 1 view .LVU619
1110:Middlewares/Third_Party/FreeRTOS/Source/CMSIS_RTOS/cmsis_os.c ****   }
 2481              		.loc 1 1110 12 is_stmt 0 view .LVU620
 2482 0060 6B46     		mov	r3, sp
 2483 0062 93E80700 		ldm	r3, {r0, r1, r2}
 2484              	.LVL201:
1110:Middlewares/Third_Party/FreeRTOS/Source/CMSIS_RTOS/cmsis_os.c ****   }
 2485              		.loc 1 1110 12 view .LVU621
 2486 0066 84E80700 		stm	r4, {r0, r1, r2}
 2487 006a 13E0     		b	.L177
 2488              	.LVL202:
 2489              	.L187:
1122:Middlewares/Third_Party/FreeRTOS/Source/CMSIS_RTOS/cmsis_os.c ****     }
 2490              		.loc 1 1122 13 view .LVU622
 2491 006c 0125     		movs	r5, #1
 2492              	.LVL203:
1122:Middlewares/Third_Party/FreeRTOS/Source/CMSIS_RTOS/cmsis_os.c ****     }
 2493              		.loc 1 1122 13 view .LVU623
 2494 006e DEE7     		b	.L180
 2495              	.LVL204:
 2496              	.L191:
1129:Middlewares/Third_Party/FreeRTOS/Source/CMSIS_RTOS/cmsis_os.c ****     }
 2497              		.loc 1 1129 7 is_stmt 1 view .LVU624
1129:Middlewares/Third_Party/FreeRTOS/Source/CMSIS_RTOS/cmsis_os.c ****     }
 2498              		.loc 1 1129 20 is_stmt 0 view .LVU625
 2499 0070 1023     		movs	r3, #16
 2500 0072 0093     		str	r3, [sp]
 2501 0074 E7E7     		b	.L183
 2502              	.L181:
1135:Middlewares/Third_Party/FreeRTOS/Source/CMSIS_RTOS/cmsis_os.c ****   }
1136:Middlewares/Third_Party/FreeRTOS/Source/CMSIS_RTOS/cmsis_os.c ****   else {
1137:Middlewares/Third_Party/FreeRTOS/Source/CMSIS_RTOS/cmsis_os.c ****     if (xQueueReceive(queue_id, &event.value.v, ticks) == pdTRUE) {
 2503              		.loc 1 1137 5 is_stmt 1 view .LVU626
 2504              		.loc 1 1137 9 is_stmt 0 view .LVU627
 2505 0076 2A46     		mov	r2, r5
 2506 0078 01A9     		add	r1, sp, #4
 2507 007a 3046     		mov	r0, r6
 2508 007c FFF7FEFF 		bl	xQueueReceive
 2509              	.LVL205:
 2510              		.loc 1 1137 8 view .LVU628
 2511 0080 0128     		cmp	r0, #1
 2512 0082 0AD0     		beq	.L192
1138:Middlewares/Third_Party/FreeRTOS/Source/CMSIS_RTOS/cmsis_os.c ****       /* We have mail */
1139:Middlewares/Third_Party/FreeRTOS/Source/CMSIS_RTOS/cmsis_os.c ****       event.status = osEventMessage;
1140:Middlewares/Third_Party/FreeRTOS/Source/CMSIS_RTOS/cmsis_os.c ****     }
1141:Middlewares/Third_Party/FreeRTOS/Source/CMSIS_RTOS/cmsis_os.c ****     else {
1142:Middlewares/Third_Party/FreeRTOS/Source/CMSIS_RTOS/cmsis_os.c ****       event.status = (ticks == 0) ? osOK : osEventTimeout;
 2513              		.loc 1 1142 7 is_stmt 1 view .LVU629
 2514              		.loc 1 1142 42 is_stmt 0 view .LVU630
 2515 0084 05B1     		cbz	r5, .L186
 2516 0086 4025     		movs	r5, #64
 2517              	.LVL206:
 2518              	.L186:
ARM GAS  /tmp/ccYrIPsY.s 			page 74


 2519              		.loc 1 1142 20 discriminator 4 view .LVU631
 2520 0088 0095     		str	r5, [sp]
 2521              	.L184:
1143:Middlewares/Third_Party/FreeRTOS/Source/CMSIS_RTOS/cmsis_os.c ****     }
1144:Middlewares/Third_Party/FreeRTOS/Source/CMSIS_RTOS/cmsis_os.c ****   }
1145:Middlewares/Third_Party/FreeRTOS/Source/CMSIS_RTOS/cmsis_os.c ****   
1146:Middlewares/Third_Party/FreeRTOS/Source/CMSIS_RTOS/cmsis_os.c ****   return event;
 2522              		.loc 1 1146 3 is_stmt 1 view .LVU632
 2523              		.loc 1 1146 10 is_stmt 0 view .LVU633
 2524 008a 6B46     		mov	r3, sp
 2525 008c 93E80700 		ldm	r3, {r0, r1, r2}
 2526 0090 84E80700 		stm	r4, {r0, r1, r2}
 2527              	.LVL207:
 2528              	.L177:
1147:Middlewares/Third_Party/FreeRTOS/Source/CMSIS_RTOS/cmsis_os.c **** }
 2529              		.loc 1 1147 1 view .LVU634
 2530 0094 2046     		mov	r0, r4
 2531 0096 04B0     		add	sp, sp, #16
 2532              	.LCFI55:
 2533              		.cfi_remember_state
 2534              		.cfi_def_cfa_offset 16
 2535              		@ sp needed
 2536 0098 70BD     		pop	{r4, r5, r6, pc}
 2537              	.LVL208:
 2538              	.L192:
 2539              	.LCFI56:
 2540              		.cfi_restore_state
1139:Middlewares/Third_Party/FreeRTOS/Source/CMSIS_RTOS/cmsis_os.c ****     }
 2541              		.loc 1 1139 7 is_stmt 1 view .LVU635
1139:Middlewares/Third_Party/FreeRTOS/Source/CMSIS_RTOS/cmsis_os.c ****     }
 2542              		.loc 1 1139 20 is_stmt 0 view .LVU636
 2543 009a 1023     		movs	r3, #16
 2544 009c 0093     		str	r3, [sp]
 2545 009e F4E7     		b	.L184
 2546              	.L194:
 2547              		.align	2
 2548              	.L193:
 2549 00a0 04ED00E0 		.word	-536810236
 2550              		.cfi_endproc
 2551              	.LFE140:
 2553              		.section	.text.osMailCreate,"ax",%progbits
 2554              		.align	1
 2555              		.global	osMailCreate
 2556              		.syntax unified
 2557              		.thumb
 2558              		.thumb_func
 2559              		.fpu fpv4-sp-d16
 2561              	osMailCreate:
 2562              	.LVL209:
 2563              	.LFB141:
1148:Middlewares/Third_Party/FreeRTOS/Source/CMSIS_RTOS/cmsis_os.c **** 
1149:Middlewares/Third_Party/FreeRTOS/Source/CMSIS_RTOS/cmsis_os.c **** #endif     /* Use Message Queues */
1150:Middlewares/Third_Party/FreeRTOS/Source/CMSIS_RTOS/cmsis_os.c **** 
1151:Middlewares/Third_Party/FreeRTOS/Source/CMSIS_RTOS/cmsis_os.c **** /********************   Mail Queue Management Functions  ***********************/
1152:Middlewares/Third_Party/FreeRTOS/Source/CMSIS_RTOS/cmsis_os.c **** #if (defined (osFeature_MailQ)  &&  (osFeature_MailQ != 0))  /* Use Mail Queues */
1153:Middlewares/Third_Party/FreeRTOS/Source/CMSIS_RTOS/cmsis_os.c **** 
1154:Middlewares/Third_Party/FreeRTOS/Source/CMSIS_RTOS/cmsis_os.c **** 
ARM GAS  /tmp/ccYrIPsY.s 			page 75


1155:Middlewares/Third_Party/FreeRTOS/Source/CMSIS_RTOS/cmsis_os.c **** typedef struct os_mailQ_cb {
1156:Middlewares/Third_Party/FreeRTOS/Source/CMSIS_RTOS/cmsis_os.c ****   const osMailQDef_t *queue_def;
1157:Middlewares/Third_Party/FreeRTOS/Source/CMSIS_RTOS/cmsis_os.c ****   QueueHandle_t handle;
1158:Middlewares/Third_Party/FreeRTOS/Source/CMSIS_RTOS/cmsis_os.c ****   osPoolId pool;
1159:Middlewares/Third_Party/FreeRTOS/Source/CMSIS_RTOS/cmsis_os.c **** } os_mailQ_cb_t;
1160:Middlewares/Third_Party/FreeRTOS/Source/CMSIS_RTOS/cmsis_os.c **** 
1161:Middlewares/Third_Party/FreeRTOS/Source/CMSIS_RTOS/cmsis_os.c **** /**
1162:Middlewares/Third_Party/FreeRTOS/Source/CMSIS_RTOS/cmsis_os.c **** * @brief Create and Initialize mail queue
1163:Middlewares/Third_Party/FreeRTOS/Source/CMSIS_RTOS/cmsis_os.c **** * @param  queue_def     reference to the mail queue definition obtain with \ref osMailQ
1164:Middlewares/Third_Party/FreeRTOS/Source/CMSIS_RTOS/cmsis_os.c **** * @param   thread_id     thread ID (obtained by \ref osThreadCreate or \ref osThreadGetId) or NULL.
1165:Middlewares/Third_Party/FreeRTOS/Source/CMSIS_RTOS/cmsis_os.c **** * @retval mail queue ID for reference by other functions or NULL in case of error.
1166:Middlewares/Third_Party/FreeRTOS/Source/CMSIS_RTOS/cmsis_os.c **** * @note   MUST REMAIN UNCHANGED: \b osMailCreate shall be consistent in every CMSIS-RTOS.
1167:Middlewares/Third_Party/FreeRTOS/Source/CMSIS_RTOS/cmsis_os.c **** */
1168:Middlewares/Third_Party/FreeRTOS/Source/CMSIS_RTOS/cmsis_os.c **** osMailQId osMailCreate (const osMailQDef_t *queue_def, osThreadId thread_id)
1169:Middlewares/Third_Party/FreeRTOS/Source/CMSIS_RTOS/cmsis_os.c **** {
 2564              		.loc 1 1169 1 is_stmt 1 view -0
 2565              		.cfi_startproc
 2566              		@ args = 0, pretend = 0, frame = 16
 2567              		@ frame_needed = 0, uses_anonymous_args = 0
 2568              		.loc 1 1169 1 is_stmt 0 view .LVU638
 2569 0000 70B5     		push	{r4, r5, r6, lr}
 2570              	.LCFI57:
 2571              		.cfi_def_cfa_offset 16
 2572              		.cfi_offset 4, -16
 2573              		.cfi_offset 5, -12
 2574              		.cfi_offset 6, -8
 2575              		.cfi_offset 14, -4
 2576 0002 84B0     		sub	sp, sp, #16
 2577              	.LCFI58:
 2578              		.cfi_def_cfa_offset 32
 2579 0004 0446     		mov	r4, r0
1170:Middlewares/Third_Party/FreeRTOS/Source/CMSIS_RTOS/cmsis_os.c **** #if (configSUPPORT_DYNAMIC_ALLOCATION == 1)
1171:Middlewares/Third_Party/FreeRTOS/Source/CMSIS_RTOS/cmsis_os.c ****   (void) thread_id;
 2580              		.loc 1 1171 3 is_stmt 1 view .LVU639
1172:Middlewares/Third_Party/FreeRTOS/Source/CMSIS_RTOS/cmsis_os.c ****   
1173:Middlewares/Third_Party/FreeRTOS/Source/CMSIS_RTOS/cmsis_os.c ****   osPoolDef_t pool_def = {queue_def->queue_sz, queue_def->item_sz, NULL};
 2581              		.loc 1 1173 3 view .LVU640
 2582              		.loc 1 1173 36 is_stmt 0 view .LVU641
 2583 0006 0368     		ldr	r3, [r0]
 2584              		.loc 1 1173 15 view .LVU642
 2585 0008 0193     		str	r3, [sp, #4]
 2586              		.loc 1 1173 57 view .LVU643
 2587 000a 4368     		ldr	r3, [r0, #4]
 2588              		.loc 1 1173 15 view .LVU644
 2589 000c 0293     		str	r3, [sp, #8]
 2590 000e 0023     		movs	r3, #0
 2591 0010 0393     		str	r3, [sp, #12]
1174:Middlewares/Third_Party/FreeRTOS/Source/CMSIS_RTOS/cmsis_os.c ****   
1175:Middlewares/Third_Party/FreeRTOS/Source/CMSIS_RTOS/cmsis_os.c ****   /* Create a mail queue control block */
1176:Middlewares/Third_Party/FreeRTOS/Source/CMSIS_RTOS/cmsis_os.c **** 
1177:Middlewares/Third_Party/FreeRTOS/Source/CMSIS_RTOS/cmsis_os.c ****   *(queue_def->cb) = pvPortMalloc(sizeof(struct os_mailQ_cb));
 2592              		.loc 1 1177 3 is_stmt 1 view .LVU645
 2593              		.loc 1 1177 14 is_stmt 0 view .LVU646
 2594 0012 8568     		ldr	r5, [r0, #8]
 2595              		.loc 1 1177 22 view .LVU647
 2596 0014 0C20     		movs	r0, #12
 2597              	.LVL210:
ARM GAS  /tmp/ccYrIPsY.s 			page 76


 2598              		.loc 1 1177 22 view .LVU648
 2599 0016 FFF7FEFF 		bl	pvPortMalloc
 2600              	.LVL211:
 2601              		.loc 1 1177 20 view .LVU649
 2602 001a 2860     		str	r0, [r5]
1178:Middlewares/Third_Party/FreeRTOS/Source/CMSIS_RTOS/cmsis_os.c **** 
1179:Middlewares/Third_Party/FreeRTOS/Source/CMSIS_RTOS/cmsis_os.c ****   if (*(queue_def->cb) == NULL) {
 2603              		.loc 1 1179 3 is_stmt 1 view .LVU650
 2604              		.loc 1 1179 18 is_stmt 0 view .LVU651
 2605 001c A368     		ldr	r3, [r4, #8]
 2606              		.loc 1 1179 7 view .LVU652
 2607 001e 1D68     		ldr	r5, [r3]
 2608              		.loc 1 1179 6 view .LVU653
 2609 0020 A5B1     		cbz	r5, .L195
1180:Middlewares/Third_Party/FreeRTOS/Source/CMSIS_RTOS/cmsis_os.c ****     return NULL;
1181:Middlewares/Third_Party/FreeRTOS/Source/CMSIS_RTOS/cmsis_os.c ****   }
1182:Middlewares/Third_Party/FreeRTOS/Source/CMSIS_RTOS/cmsis_os.c ****   (*(queue_def->cb))->queue_def = queue_def;
 2610              		.loc 1 1182 3 is_stmt 1 view .LVU654
 2611              		.loc 1 1182 33 is_stmt 0 view .LVU655
 2612 0022 2C60     		str	r4, [r5]
1183:Middlewares/Third_Party/FreeRTOS/Source/CMSIS_RTOS/cmsis_os.c ****   
1184:Middlewares/Third_Party/FreeRTOS/Source/CMSIS_RTOS/cmsis_os.c ****   /* Create a queue in FreeRTOS */
1185:Middlewares/Third_Party/FreeRTOS/Source/CMSIS_RTOS/cmsis_os.c ****   (*(queue_def->cb))->handle = xQueueCreate(queue_def->queue_sz, sizeof(void *));
 2613              		.loc 1 1185 3 is_stmt 1 view .LVU656
 2614              		.loc 1 1185 15 is_stmt 0 view .LVU657
 2615 0024 A368     		ldr	r3, [r4, #8]
 2616              		.loc 1 1185 4 view .LVU658
 2617 0026 1D68     		ldr	r5, [r3]
 2618              		.loc 1 1185 32 view .LVU659
 2619 0028 0022     		movs	r2, #0
 2620 002a 0421     		movs	r1, #4
 2621 002c 2068     		ldr	r0, [r4]
 2622 002e FFF7FEFF 		bl	xQueueGenericCreate
 2623              	.LVL212:
 2624              		.loc 1 1185 30 view .LVU660
 2625 0032 6860     		str	r0, [r5, #4]
1186:Middlewares/Third_Party/FreeRTOS/Source/CMSIS_RTOS/cmsis_os.c **** 
1187:Middlewares/Third_Party/FreeRTOS/Source/CMSIS_RTOS/cmsis_os.c **** 
1188:Middlewares/Third_Party/FreeRTOS/Source/CMSIS_RTOS/cmsis_os.c ****   if ((*(queue_def->cb))->handle == NULL) {
 2626              		.loc 1 1188 3 is_stmt 1 view .LVU661
 2627              		.loc 1 1188 19 is_stmt 0 view .LVU662
 2628 0034 A368     		ldr	r3, [r4, #8]
 2629              		.loc 1 1188 8 view .LVU663
 2630 0036 1E68     		ldr	r6, [r3]
 2631              		.loc 1 1188 25 view .LVU664
 2632 0038 7568     		ldr	r5, [r6, #4]
 2633              		.loc 1 1188 6 view .LVU665
 2634 003a 55B1     		cbz	r5, .L199
1189:Middlewares/Third_Party/FreeRTOS/Source/CMSIS_RTOS/cmsis_os.c ****     vPortFree(*(queue_def->cb));
1190:Middlewares/Third_Party/FreeRTOS/Source/CMSIS_RTOS/cmsis_os.c ****     return NULL;
1191:Middlewares/Third_Party/FreeRTOS/Source/CMSIS_RTOS/cmsis_os.c ****   }
1192:Middlewares/Third_Party/FreeRTOS/Source/CMSIS_RTOS/cmsis_os.c ****   
1193:Middlewares/Third_Party/FreeRTOS/Source/CMSIS_RTOS/cmsis_os.c ****   /* Create a mail pool */
1194:Middlewares/Third_Party/FreeRTOS/Source/CMSIS_RTOS/cmsis_os.c ****   (*(queue_def->cb))->pool = osPoolCreate(&pool_def);
 2635              		.loc 1 1194 3 is_stmt 1 view .LVU666
 2636              		.loc 1 1194 30 is_stmt 0 view .LVU667
 2637 003c 01A8     		add	r0, sp, #4
ARM GAS  /tmp/ccYrIPsY.s 			page 77


 2638 003e FFF7FEFF 		bl	osPoolCreate
 2639              	.LVL213:
 2640              		.loc 1 1194 28 view .LVU668
 2641 0042 B060     		str	r0, [r6, #8]
1195:Middlewares/Third_Party/FreeRTOS/Source/CMSIS_RTOS/cmsis_os.c ****   if ((*(queue_def->cb))->pool == NULL) {
 2642              		.loc 1 1195 3 is_stmt 1 view .LVU669
 2643              		.loc 1 1195 19 is_stmt 0 view .LVU670
 2644 0044 A368     		ldr	r3, [r4, #8]
 2645              		.loc 1 1195 8 view .LVU671
 2646 0046 1D68     		ldr	r5, [r3]
 2647              		.loc 1 1195 25 view .LVU672
 2648 0048 AC68     		ldr	r4, [r5, #8]
 2649              	.LVL214:
 2650              		.loc 1 1195 6 view .LVU673
 2651 004a 34B1     		cbz	r4, .L200
 2652              	.L195:
1196:Middlewares/Third_Party/FreeRTOS/Source/CMSIS_RTOS/cmsis_os.c ****     //TODO: Delete queue. How to do it in FreeRTOS?
1197:Middlewares/Third_Party/FreeRTOS/Source/CMSIS_RTOS/cmsis_os.c ****     vPortFree(*(queue_def->cb));
1198:Middlewares/Third_Party/FreeRTOS/Source/CMSIS_RTOS/cmsis_os.c ****     return NULL;
1199:Middlewares/Third_Party/FreeRTOS/Source/CMSIS_RTOS/cmsis_os.c ****   }
1200:Middlewares/Third_Party/FreeRTOS/Source/CMSIS_RTOS/cmsis_os.c ****   
1201:Middlewares/Third_Party/FreeRTOS/Source/CMSIS_RTOS/cmsis_os.c ****   return *(queue_def->cb);
1202:Middlewares/Third_Party/FreeRTOS/Source/CMSIS_RTOS/cmsis_os.c **** #else
1203:Middlewares/Third_Party/FreeRTOS/Source/CMSIS_RTOS/cmsis_os.c ****   return NULL;
1204:Middlewares/Third_Party/FreeRTOS/Source/CMSIS_RTOS/cmsis_os.c **** #endif
1205:Middlewares/Third_Party/FreeRTOS/Source/CMSIS_RTOS/cmsis_os.c **** }
 2653              		.loc 1 1205 1 view .LVU674
 2654 004c 2846     		mov	r0, r5
 2655 004e 04B0     		add	sp, sp, #16
 2656              	.LCFI59:
 2657              		.cfi_remember_state
 2658              		.cfi_def_cfa_offset 16
 2659              		@ sp needed
 2660 0050 70BD     		pop	{r4, r5, r6, pc}
 2661              	.LVL215:
 2662              	.L199:
 2663              	.LCFI60:
 2664              		.cfi_restore_state
1189:Middlewares/Third_Party/FreeRTOS/Source/CMSIS_RTOS/cmsis_os.c ****     return NULL;
 2665              		.loc 1 1189 5 is_stmt 1 view .LVU675
 2666 0052 3046     		mov	r0, r6
 2667 0054 FFF7FEFF 		bl	vPortFree
 2668              	.LVL216:
1190:Middlewares/Third_Party/FreeRTOS/Source/CMSIS_RTOS/cmsis_os.c ****   }
 2669              		.loc 1 1190 5 view .LVU676
1190:Middlewares/Third_Party/FreeRTOS/Source/CMSIS_RTOS/cmsis_os.c ****   }
 2670              		.loc 1 1190 12 is_stmt 0 view .LVU677
 2671 0058 F8E7     		b	.L195
 2672              	.LVL217:
 2673              	.L200:
1197:Middlewares/Third_Party/FreeRTOS/Source/CMSIS_RTOS/cmsis_os.c ****     return NULL;
 2674              		.loc 1 1197 5 is_stmt 1 view .LVU678
 2675 005a 2846     		mov	r0, r5
 2676 005c FFF7FEFF 		bl	vPortFree
 2677              	.LVL218:
1198:Middlewares/Third_Party/FreeRTOS/Source/CMSIS_RTOS/cmsis_os.c ****   }
 2678              		.loc 1 1198 5 view .LVU679
ARM GAS  /tmp/ccYrIPsY.s 			page 78


1198:Middlewares/Third_Party/FreeRTOS/Source/CMSIS_RTOS/cmsis_os.c ****   }
 2679              		.loc 1 1198 12 is_stmt 0 view .LVU680
 2680 0060 2546     		mov	r5, r4
 2681 0062 F3E7     		b	.L195
 2682              		.cfi_endproc
 2683              	.LFE141:
 2685              		.section	.text.osMailAlloc,"ax",%progbits
 2686              		.align	1
 2687              		.global	osMailAlloc
 2688              		.syntax unified
 2689              		.thumb
 2690              		.thumb_func
 2691              		.fpu fpv4-sp-d16
 2693              	osMailAlloc:
 2694              	.LVL219:
 2695              	.LFB142:
1206:Middlewares/Third_Party/FreeRTOS/Source/CMSIS_RTOS/cmsis_os.c **** 
1207:Middlewares/Third_Party/FreeRTOS/Source/CMSIS_RTOS/cmsis_os.c **** /**
1208:Middlewares/Third_Party/FreeRTOS/Source/CMSIS_RTOS/cmsis_os.c **** * @brief Allocate a memory block from a mail
1209:Middlewares/Third_Party/FreeRTOS/Source/CMSIS_RTOS/cmsis_os.c **** * @param  queue_id      mail queue ID obtained with \ref osMailCreate.
1210:Middlewares/Third_Party/FreeRTOS/Source/CMSIS_RTOS/cmsis_os.c **** * @param  millisec      timeout value or 0 in case of no time-out.
1211:Middlewares/Third_Party/FreeRTOS/Source/CMSIS_RTOS/cmsis_os.c **** * @retval pointer to memory block that can be filled with mail or NULL in case error.
1212:Middlewares/Third_Party/FreeRTOS/Source/CMSIS_RTOS/cmsis_os.c **** * @note   MUST REMAIN UNCHANGED: \b osMailAlloc shall be consistent in every CMSIS-RTOS.
1213:Middlewares/Third_Party/FreeRTOS/Source/CMSIS_RTOS/cmsis_os.c **** */
1214:Middlewares/Third_Party/FreeRTOS/Source/CMSIS_RTOS/cmsis_os.c **** void *osMailAlloc (osMailQId queue_id, uint32_t millisec)
1215:Middlewares/Third_Party/FreeRTOS/Source/CMSIS_RTOS/cmsis_os.c **** {
 2696              		.loc 1 1215 1 is_stmt 1 view -0
 2697              		.cfi_startproc
 2698              		@ args = 0, pretend = 0, frame = 0
 2699              		@ frame_needed = 0, uses_anonymous_args = 0
 2700              		.loc 1 1215 1 is_stmt 0 view .LVU682
 2701 0000 08B5     		push	{r3, lr}
 2702              	.LCFI61:
 2703              		.cfi_def_cfa_offset 8
 2704              		.cfi_offset 3, -8
 2705              		.cfi_offset 14, -4
1216:Middlewares/Third_Party/FreeRTOS/Source/CMSIS_RTOS/cmsis_os.c ****   (void) millisec;
 2706              		.loc 1 1216 3 is_stmt 1 view .LVU683
1217:Middlewares/Third_Party/FreeRTOS/Source/CMSIS_RTOS/cmsis_os.c ****   void *p;
 2707              		.loc 1 1217 3 view .LVU684
1218:Middlewares/Third_Party/FreeRTOS/Source/CMSIS_RTOS/cmsis_os.c ****   
1219:Middlewares/Third_Party/FreeRTOS/Source/CMSIS_RTOS/cmsis_os.c ****   
1220:Middlewares/Third_Party/FreeRTOS/Source/CMSIS_RTOS/cmsis_os.c ****   if (queue_id == NULL) {
 2708              		.loc 1 1220 3 view .LVU685
 2709              		.loc 1 1220 6 is_stmt 0 view .LVU686
 2710 0002 10B1     		cbz	r0, .L201
1221:Middlewares/Third_Party/FreeRTOS/Source/CMSIS_RTOS/cmsis_os.c ****     return NULL;
1222:Middlewares/Third_Party/FreeRTOS/Source/CMSIS_RTOS/cmsis_os.c ****   }
1223:Middlewares/Third_Party/FreeRTOS/Source/CMSIS_RTOS/cmsis_os.c ****   
1224:Middlewares/Third_Party/FreeRTOS/Source/CMSIS_RTOS/cmsis_os.c ****   p = osPoolAlloc(queue_id->pool);
 2711              		.loc 1 1224 3 is_stmt 1 view .LVU687
 2712              		.loc 1 1224 7 is_stmt 0 view .LVU688
 2713 0004 8068     		ldr	r0, [r0, #8]
 2714              	.LVL220:
 2715              		.loc 1 1224 7 view .LVU689
 2716 0006 FFF7FEFF 		bl	osPoolAlloc
 2717              	.LVL221:
ARM GAS  /tmp/ccYrIPsY.s 			page 79


1225:Middlewares/Third_Party/FreeRTOS/Source/CMSIS_RTOS/cmsis_os.c ****   
1226:Middlewares/Third_Party/FreeRTOS/Source/CMSIS_RTOS/cmsis_os.c ****   return p;
 2718              		.loc 1 1226 3 is_stmt 1 view .LVU690
 2719              	.L201:
1227:Middlewares/Third_Party/FreeRTOS/Source/CMSIS_RTOS/cmsis_os.c **** }
 2720              		.loc 1 1227 1 is_stmt 0 view .LVU691
 2721 000a 08BD     		pop	{r3, pc}
 2722              		.cfi_endproc
 2723              	.LFE142:
 2725              		.section	.text.osMailCAlloc,"ax",%progbits
 2726              		.align	1
 2727              		.global	osMailCAlloc
 2728              		.syntax unified
 2729              		.thumb
 2730              		.thumb_func
 2731              		.fpu fpv4-sp-d16
 2733              	osMailCAlloc:
 2734              	.LVL222:
 2735              	.LFB143:
1228:Middlewares/Third_Party/FreeRTOS/Source/CMSIS_RTOS/cmsis_os.c **** 
1229:Middlewares/Third_Party/FreeRTOS/Source/CMSIS_RTOS/cmsis_os.c **** /**
1230:Middlewares/Third_Party/FreeRTOS/Source/CMSIS_RTOS/cmsis_os.c **** * @brief Allocate a memory block from a mail and set memory block to zero
1231:Middlewares/Third_Party/FreeRTOS/Source/CMSIS_RTOS/cmsis_os.c **** * @param  queue_id      mail queue ID obtained with \ref osMailCreate.
1232:Middlewares/Third_Party/FreeRTOS/Source/CMSIS_RTOS/cmsis_os.c **** * @param  millisec      timeout value or 0 in case of no time-out.
1233:Middlewares/Third_Party/FreeRTOS/Source/CMSIS_RTOS/cmsis_os.c **** * @retval pointer to memory block that can be filled with mail or NULL in case error.
1234:Middlewares/Third_Party/FreeRTOS/Source/CMSIS_RTOS/cmsis_os.c **** * @note   MUST REMAIN UNCHANGED: \b osMailCAlloc shall be consistent in every CMSIS-RTOS.
1235:Middlewares/Third_Party/FreeRTOS/Source/CMSIS_RTOS/cmsis_os.c **** */
1236:Middlewares/Third_Party/FreeRTOS/Source/CMSIS_RTOS/cmsis_os.c **** void *osMailCAlloc (osMailQId queue_id, uint32_t millisec)
1237:Middlewares/Third_Party/FreeRTOS/Source/CMSIS_RTOS/cmsis_os.c **** {
 2736              		.loc 1 1237 1 is_stmt 1 view -0
 2737              		.cfi_startproc
 2738              		@ args = 0, pretend = 0, frame = 0
 2739              		@ frame_needed = 0, uses_anonymous_args = 0
 2740              		.loc 1 1237 1 is_stmt 0 view .LVU693
 2741 0000 10B5     		push	{r4, lr}
 2742              	.LCFI62:
 2743              		.cfi_def_cfa_offset 8
 2744              		.cfi_offset 4, -8
 2745              		.cfi_offset 14, -4
 2746 0002 0446     		mov	r4, r0
1238:Middlewares/Third_Party/FreeRTOS/Source/CMSIS_RTOS/cmsis_os.c ****   uint32_t i;
 2747              		.loc 1 1238 3 is_stmt 1 view .LVU694
1239:Middlewares/Third_Party/FreeRTOS/Source/CMSIS_RTOS/cmsis_os.c ****   void *p = osMailAlloc(queue_id, millisec);
 2748              		.loc 1 1239 3 view .LVU695
 2749              		.loc 1 1239 13 is_stmt 0 view .LVU696
 2750 0004 FFF7FEFF 		bl	osMailAlloc
 2751              	.LVL223:
1240:Middlewares/Third_Party/FreeRTOS/Source/CMSIS_RTOS/cmsis_os.c ****   
1241:Middlewares/Third_Party/FreeRTOS/Source/CMSIS_RTOS/cmsis_os.c ****   if (p) {
 2752              		.loc 1 1241 3 is_stmt 1 view .LVU697
 2753              		.loc 1 1241 6 is_stmt 0 view .LVU698
 2754 0008 0146     		mov	r1, r0
 2755 000a 40B1     		cbz	r0, .L205
1242:Middlewares/Third_Party/FreeRTOS/Source/CMSIS_RTOS/cmsis_os.c ****     for (i = 0; i < queue_id->queue_def->item_sz; i++) {
 2756              		.loc 1 1242 12 view .LVU699
 2757 000c 0023     		movs	r3, #0
 2758 000e 02E0     		b	.L206
ARM GAS  /tmp/ccYrIPsY.s 			page 80


 2759              	.LVL224:
 2760              	.L208:
1243:Middlewares/Third_Party/FreeRTOS/Source/CMSIS_RTOS/cmsis_os.c ****       ((uint8_t *)p)[i] = 0;
 2761              		.loc 1 1243 7 is_stmt 1 discriminator 3 view .LVU700
 2762              		.loc 1 1243 25 is_stmt 0 discriminator 3 view .LVU701
 2763 0010 0022     		movs	r2, #0
 2764 0012 CA54     		strb	r2, [r1, r3]
1242:Middlewares/Third_Party/FreeRTOS/Source/CMSIS_RTOS/cmsis_os.c ****     for (i = 0; i < queue_id->queue_def->item_sz; i++) {
 2765              		.loc 1 1242 51 is_stmt 1 discriminator 3 view .LVU702
1242:Middlewares/Third_Party/FreeRTOS/Source/CMSIS_RTOS/cmsis_os.c ****     for (i = 0; i < queue_id->queue_def->item_sz; i++) {
 2766              		.loc 1 1242 52 is_stmt 0 discriminator 3 view .LVU703
 2767 0014 0133     		adds	r3, r3, #1
 2768              	.LVL225:
 2769              	.L206:
1242:Middlewares/Third_Party/FreeRTOS/Source/CMSIS_RTOS/cmsis_os.c ****     for (i = 0; i < queue_id->queue_def->item_sz; i++) {
 2770              		.loc 1 1242 17 is_stmt 1 discriminator 1 view .LVU704
1242:Middlewares/Third_Party/FreeRTOS/Source/CMSIS_RTOS/cmsis_os.c ****     for (i = 0; i < queue_id->queue_def->item_sz; i++) {
 2771              		.loc 1 1242 29 is_stmt 0 discriminator 1 view .LVU705
 2772 0016 2268     		ldr	r2, [r4]
1242:Middlewares/Third_Party/FreeRTOS/Source/CMSIS_RTOS/cmsis_os.c ****     for (i = 0; i < queue_id->queue_def->item_sz; i++) {
 2773              		.loc 1 1242 40 discriminator 1 view .LVU706
 2774 0018 5268     		ldr	r2, [r2, #4]
1242:Middlewares/Third_Party/FreeRTOS/Source/CMSIS_RTOS/cmsis_os.c ****     for (i = 0; i < queue_id->queue_def->item_sz; i++) {
 2775              		.loc 1 1242 5 discriminator 1 view .LVU707
 2776 001a 9A42     		cmp	r2, r3
 2777 001c F8D8     		bhi	.L208
 2778              	.LVL226:
 2779              	.L205:
1244:Middlewares/Third_Party/FreeRTOS/Source/CMSIS_RTOS/cmsis_os.c ****     }
1245:Middlewares/Third_Party/FreeRTOS/Source/CMSIS_RTOS/cmsis_os.c ****   }
1246:Middlewares/Third_Party/FreeRTOS/Source/CMSIS_RTOS/cmsis_os.c ****   
1247:Middlewares/Third_Party/FreeRTOS/Source/CMSIS_RTOS/cmsis_os.c ****   return p;
1248:Middlewares/Third_Party/FreeRTOS/Source/CMSIS_RTOS/cmsis_os.c **** }
 2780              		.loc 1 1248 1 view .LVU708
 2781 001e 0846     		mov	r0, r1
 2782              	.LVL227:
 2783              		.loc 1 1248 1 view .LVU709
 2784 0020 10BD     		pop	{r4, pc}
 2785              		.loc 1 1248 1 view .LVU710
 2786              		.cfi_endproc
 2787              	.LFE143:
 2789              		.section	.text.osMailPut,"ax",%progbits
 2790              		.align	1
 2791              		.global	osMailPut
 2792              		.syntax unified
 2793              		.thumb
 2794              		.thumb_func
 2795              		.fpu fpv4-sp-d16
 2797              	osMailPut:
 2798              	.LVL228:
 2799              	.LFB144:
1249:Middlewares/Third_Party/FreeRTOS/Source/CMSIS_RTOS/cmsis_os.c **** 
1250:Middlewares/Third_Party/FreeRTOS/Source/CMSIS_RTOS/cmsis_os.c **** /**
1251:Middlewares/Third_Party/FreeRTOS/Source/CMSIS_RTOS/cmsis_os.c **** * @brief Put a mail to a queue
1252:Middlewares/Third_Party/FreeRTOS/Source/CMSIS_RTOS/cmsis_os.c **** * @param  queue_id      mail queue ID obtained with \ref osMailCreate.
1253:Middlewares/Third_Party/FreeRTOS/Source/CMSIS_RTOS/cmsis_os.c **** * @param  mail          memory block previously allocated with \ref osMailAlloc or \ref osMailCAllo
1254:Middlewares/Third_Party/FreeRTOS/Source/CMSIS_RTOS/cmsis_os.c **** * @retval status code that indicates the execution status of the function.
ARM GAS  /tmp/ccYrIPsY.s 			page 81


1255:Middlewares/Third_Party/FreeRTOS/Source/CMSIS_RTOS/cmsis_os.c **** * @note   MUST REMAIN UNCHANGED: \b osMailPut shall be consistent in every CMSIS-RTOS.
1256:Middlewares/Third_Party/FreeRTOS/Source/CMSIS_RTOS/cmsis_os.c **** */
1257:Middlewares/Third_Party/FreeRTOS/Source/CMSIS_RTOS/cmsis_os.c **** osStatus osMailPut (osMailQId queue_id, void *mail)
1258:Middlewares/Third_Party/FreeRTOS/Source/CMSIS_RTOS/cmsis_os.c **** {
 2800              		.loc 1 1258 1 is_stmt 1 view -0
 2801              		.cfi_startproc
 2802              		@ args = 0, pretend = 0, frame = 16
 2803              		@ frame_needed = 0, uses_anonymous_args = 0
 2804              		.loc 1 1258 1 is_stmt 0 view .LVU712
 2805 0000 10B5     		push	{r4, lr}
 2806              	.LCFI63:
 2807              		.cfi_def_cfa_offset 8
 2808              		.cfi_offset 4, -8
 2809              		.cfi_offset 14, -4
 2810 0002 84B0     		sub	sp, sp, #16
 2811              	.LCFI64:
 2812              		.cfi_def_cfa_offset 24
 2813 0004 0191     		str	r1, [sp, #4]
1259:Middlewares/Third_Party/FreeRTOS/Source/CMSIS_RTOS/cmsis_os.c ****   portBASE_TYPE taskWoken;
 2814              		.loc 1 1259 3 is_stmt 1 view .LVU713
1260:Middlewares/Third_Party/FreeRTOS/Source/CMSIS_RTOS/cmsis_os.c ****   
1261:Middlewares/Third_Party/FreeRTOS/Source/CMSIS_RTOS/cmsis_os.c ****   
1262:Middlewares/Third_Party/FreeRTOS/Source/CMSIS_RTOS/cmsis_os.c ****   if (queue_id == NULL) {
 2815              		.loc 1 1262 3 view .LVU714
 2816              		.loc 1 1262 6 is_stmt 0 view .LVU715
 2817 0006 20B3     		cbz	r0, .L214
 2818 0008 0446     		mov	r4, r0
1263:Middlewares/Third_Party/FreeRTOS/Source/CMSIS_RTOS/cmsis_os.c ****     return osErrorParameter;
1264:Middlewares/Third_Party/FreeRTOS/Source/CMSIS_RTOS/cmsis_os.c ****   }
1265:Middlewares/Third_Party/FreeRTOS/Source/CMSIS_RTOS/cmsis_os.c ****   
1266:Middlewares/Third_Party/FreeRTOS/Source/CMSIS_RTOS/cmsis_os.c ****   taskWoken = pdFALSE;
 2819              		.loc 1 1266 3 is_stmt 1 view .LVU716
 2820              		.loc 1 1266 13 is_stmt 0 view .LVU717
 2821 000a 0023     		movs	r3, #0
 2822 000c 0393     		str	r3, [sp, #12]
1267:Middlewares/Third_Party/FreeRTOS/Source/CMSIS_RTOS/cmsis_os.c ****   
1268:Middlewares/Third_Party/FreeRTOS/Source/CMSIS_RTOS/cmsis_os.c ****   if (inHandlerMode()) {
 2823              		.loc 1 1268 3 is_stmt 1 view .LVU718
 2824              		.loc 1 1268 7 is_stmt 0 view .LVU719
 2825 000e FFF7FEFF 		bl	inHandlerMode
 2826              	.LVL229:
 2827              		.loc 1 1268 6 view .LVU720
 2828 0012 98B1     		cbz	r0, .L213
1269:Middlewares/Third_Party/FreeRTOS/Source/CMSIS_RTOS/cmsis_os.c ****     if (xQueueSendFromISR(queue_id->handle, &mail, &taskWoken) != pdTRUE) {
 2829              		.loc 1 1269 5 is_stmt 1 view .LVU721
 2830              		.loc 1 1269 9 is_stmt 0 view .LVU722
 2831 0014 0023     		movs	r3, #0
 2832 0016 03AA     		add	r2, sp, #12
 2833 0018 01A9     		add	r1, sp, #4
 2834 001a 6068     		ldr	r0, [r4, #4]
 2835 001c FFF7FEFF 		bl	xQueueGenericSendFromISR
 2836              	.LVL230:
 2837              		.loc 1 1269 8 view .LVU723
 2838 0020 0128     		cmp	r0, #1
 2839 0022 18D1     		bne	.L215
1270:Middlewares/Third_Party/FreeRTOS/Source/CMSIS_RTOS/cmsis_os.c ****       return osErrorOS;
1271:Middlewares/Third_Party/FreeRTOS/Source/CMSIS_RTOS/cmsis_os.c ****     }
ARM GAS  /tmp/ccYrIPsY.s 			page 82


1272:Middlewares/Third_Party/FreeRTOS/Source/CMSIS_RTOS/cmsis_os.c ****     portEND_SWITCHING_ISR(taskWoken);
 2840              		.loc 1 1272 5 is_stmt 1 view .LVU724
 2841 0024 039B     		ldr	r3, [sp, #12]
 2842 0026 C3B1     		cbz	r3, .L216
 2843              		.loc 1 1272 5 discriminator 1 view .LVU725
 2844 0028 0E4B     		ldr	r3, .L219
 2845 002a 4FF08052 		mov	r2, #268435456
 2846 002e 1A60     		str	r2, [r3]
 2847              		.loc 1 1272 5 discriminator 1 view .LVU726
 2848              		.syntax unified
 2849              	@ 1272 "Middlewares/Third_Party/FreeRTOS/Source/CMSIS_RTOS/cmsis_os.c" 1
 2850 0030 BFF34F8F 		dsb
 2851              	@ 0 "" 2
 2852              		.loc 1 1272 5 discriminator 1 view .LVU727
 2853              	@ 1272 "Middlewares/Third_Party/FreeRTOS/Source/CMSIS_RTOS/cmsis_os.c" 1
 2854 0034 BFF36F8F 		isb
 2855              	@ 0 "" 2
1273:Middlewares/Third_Party/FreeRTOS/Source/CMSIS_RTOS/cmsis_os.c ****   }
1274:Middlewares/Third_Party/FreeRTOS/Source/CMSIS_RTOS/cmsis_os.c ****   else {
1275:Middlewares/Third_Party/FreeRTOS/Source/CMSIS_RTOS/cmsis_os.c ****     if (xQueueSend(queue_id->handle, &mail, 0) != pdTRUE) { 
1276:Middlewares/Third_Party/FreeRTOS/Source/CMSIS_RTOS/cmsis_os.c ****       return osErrorOS;
1277:Middlewares/Third_Party/FreeRTOS/Source/CMSIS_RTOS/cmsis_os.c ****     }
1278:Middlewares/Third_Party/FreeRTOS/Source/CMSIS_RTOS/cmsis_os.c ****   }
1279:Middlewares/Third_Party/FreeRTOS/Source/CMSIS_RTOS/cmsis_os.c ****   
1280:Middlewares/Third_Party/FreeRTOS/Source/CMSIS_RTOS/cmsis_os.c ****   return osOK;
 2856              		.loc 1 1280 10 is_stmt 0 discriminator 1 view .LVU728
 2857              		.thumb
 2858              		.syntax unified
 2859 0038 0020     		movs	r0, #0
 2860 003a 08E0     		b	.L211
 2861              	.L213:
1275:Middlewares/Third_Party/FreeRTOS/Source/CMSIS_RTOS/cmsis_os.c ****       return osErrorOS;
 2862              		.loc 1 1275 5 is_stmt 1 view .LVU729
1275:Middlewares/Third_Party/FreeRTOS/Source/CMSIS_RTOS/cmsis_os.c ****       return osErrorOS;
 2863              		.loc 1 1275 9 is_stmt 0 view .LVU730
 2864 003c 0023     		movs	r3, #0
 2865 003e 1A46     		mov	r2, r3
 2866 0040 01A9     		add	r1, sp, #4
 2867 0042 6068     		ldr	r0, [r4, #4]
 2868 0044 FFF7FEFF 		bl	xQueueGenericSend
 2869              	.LVL231:
1275:Middlewares/Third_Party/FreeRTOS/Source/CMSIS_RTOS/cmsis_os.c ****       return osErrorOS;
 2870              		.loc 1 1275 8 view .LVU731
 2871 0048 0128     		cmp	r0, #1
 2872 004a 08D1     		bne	.L217
 2873              		.loc 1 1280 10 view .LVU732
 2874 004c 0020     		movs	r0, #0
 2875              	.LVL232:
 2876              	.L211:
1281:Middlewares/Third_Party/FreeRTOS/Source/CMSIS_RTOS/cmsis_os.c **** }
 2877              		.loc 1 1281 1 view .LVU733
 2878 004e 04B0     		add	sp, sp, #16
 2879              	.LCFI65:
 2880              		.cfi_remember_state
 2881              		.cfi_def_cfa_offset 8
 2882              		@ sp needed
 2883 0050 10BD     		pop	{r4, pc}
ARM GAS  /tmp/ccYrIPsY.s 			page 83


 2884              	.LVL233:
 2885              	.L214:
 2886              	.LCFI66:
 2887              		.cfi_restore_state
1263:Middlewares/Third_Party/FreeRTOS/Source/CMSIS_RTOS/cmsis_os.c ****   }
 2888              		.loc 1 1263 12 view .LVU734
 2889 0052 8020     		movs	r0, #128
 2890              	.LVL234:
1263:Middlewares/Third_Party/FreeRTOS/Source/CMSIS_RTOS/cmsis_os.c ****   }
 2891              		.loc 1 1263 12 view .LVU735
 2892 0054 FBE7     		b	.L211
 2893              	.LVL235:
 2894              	.L215:
1270:Middlewares/Third_Party/FreeRTOS/Source/CMSIS_RTOS/cmsis_os.c ****     }
 2895              		.loc 1 1270 14 view .LVU736
 2896 0056 FF20     		movs	r0, #255
 2897 0058 F9E7     		b	.L211
 2898              	.L216:
1280:Middlewares/Third_Party/FreeRTOS/Source/CMSIS_RTOS/cmsis_os.c **** }
 2899              		.loc 1 1280 10 view .LVU737
 2900 005a 0020     		movs	r0, #0
 2901 005c F7E7     		b	.L211
 2902              	.L217:
1276:Middlewares/Third_Party/FreeRTOS/Source/CMSIS_RTOS/cmsis_os.c ****     }
 2903              		.loc 1 1276 14 view .LVU738
 2904 005e FF20     		movs	r0, #255
 2905 0060 F5E7     		b	.L211
 2906              	.L220:
 2907 0062 00BF     		.align	2
 2908              	.L219:
 2909 0064 04ED00E0 		.word	-536810236
 2910              		.cfi_endproc
 2911              	.LFE144:
 2913              		.section	.text.osMailGet,"ax",%progbits
 2914              		.align	1
 2915              		.global	osMailGet
 2916              		.syntax unified
 2917              		.thumb
 2918              		.thumb_func
 2919              		.fpu fpv4-sp-d16
 2921              	osMailGet:
 2922              	.LVL236:
 2923              	.LFB145:
1282:Middlewares/Third_Party/FreeRTOS/Source/CMSIS_RTOS/cmsis_os.c **** 
1283:Middlewares/Third_Party/FreeRTOS/Source/CMSIS_RTOS/cmsis_os.c **** /**
1284:Middlewares/Third_Party/FreeRTOS/Source/CMSIS_RTOS/cmsis_os.c **** * @brief Get a mail from a queue
1285:Middlewares/Third_Party/FreeRTOS/Source/CMSIS_RTOS/cmsis_os.c **** * @param  queue_id   mail queue ID obtained with \ref osMailCreate.
1286:Middlewares/Third_Party/FreeRTOS/Source/CMSIS_RTOS/cmsis_os.c **** * @param millisec    timeout value or 0 in case of no time-out
1287:Middlewares/Third_Party/FreeRTOS/Source/CMSIS_RTOS/cmsis_os.c **** * @retval event that contains mail information or error code.
1288:Middlewares/Third_Party/FreeRTOS/Source/CMSIS_RTOS/cmsis_os.c **** * @note   MUST REMAIN UNCHANGED: \b osMailGet shall be consistent in every CMSIS-RTOS.
1289:Middlewares/Third_Party/FreeRTOS/Source/CMSIS_RTOS/cmsis_os.c **** */
1290:Middlewares/Third_Party/FreeRTOS/Source/CMSIS_RTOS/cmsis_os.c **** osEvent osMailGet (osMailQId queue_id, uint32_t millisec)
1291:Middlewares/Third_Party/FreeRTOS/Source/CMSIS_RTOS/cmsis_os.c **** {
 2924              		.loc 1 1291 1 is_stmt 1 view -0
 2925              		.cfi_startproc
 2926              		@ args = 0, pretend = 0, frame = 16
 2927              		@ frame_needed = 0, uses_anonymous_args = 0
ARM GAS  /tmp/ccYrIPsY.s 			page 84


 2928              		.loc 1 1291 1 is_stmt 0 view .LVU740
 2929 0000 70B5     		push	{r4, r5, r6, lr}
 2930              	.LCFI67:
 2931              		.cfi_def_cfa_offset 16
 2932              		.cfi_offset 4, -16
 2933              		.cfi_offset 5, -12
 2934              		.cfi_offset 6, -8
 2935              		.cfi_offset 14, -4
 2936 0002 84B0     		sub	sp, sp, #16
 2937              	.LCFI68:
 2938              		.cfi_def_cfa_offset 32
 2939 0004 0446     		mov	r4, r0
1292:Middlewares/Third_Party/FreeRTOS/Source/CMSIS_RTOS/cmsis_os.c ****   portBASE_TYPE taskWoken;
 2940              		.loc 1 1292 3 is_stmt 1 view .LVU741
1293:Middlewares/Third_Party/FreeRTOS/Source/CMSIS_RTOS/cmsis_os.c ****   TickType_t ticks;
 2941              		.loc 1 1293 3 view .LVU742
1294:Middlewares/Third_Party/FreeRTOS/Source/CMSIS_RTOS/cmsis_os.c ****   osEvent event;
 2942              		.loc 1 1294 3 view .LVU743
1295:Middlewares/Third_Party/FreeRTOS/Source/CMSIS_RTOS/cmsis_os.c ****   
1296:Middlewares/Third_Party/FreeRTOS/Source/CMSIS_RTOS/cmsis_os.c ****   event.def.mail_id = queue_id;
 2943              		.loc 1 1296 3 view .LVU744
 2944              		.loc 1 1296 21 is_stmt 0 view .LVU745
 2945 0006 0291     		str	r1, [sp, #8]
1297:Middlewares/Third_Party/FreeRTOS/Source/CMSIS_RTOS/cmsis_os.c ****   
1298:Middlewares/Third_Party/FreeRTOS/Source/CMSIS_RTOS/cmsis_os.c ****   if (queue_id == NULL) {
 2946              		.loc 1 1298 3 is_stmt 1 view .LVU746
 2947              		.loc 1 1298 6 is_stmt 0 view .LVU747
 2948 0008 31B3     		cbz	r1, .L234
 2949 000a 0E46     		mov	r6, r1
 2950 000c 1546     		mov	r5, r2
1299:Middlewares/Third_Party/FreeRTOS/Source/CMSIS_RTOS/cmsis_os.c ****     event.status = osErrorParameter;
1300:Middlewares/Third_Party/FreeRTOS/Source/CMSIS_RTOS/cmsis_os.c ****     return event;
1301:Middlewares/Third_Party/FreeRTOS/Source/CMSIS_RTOS/cmsis_os.c ****   }
1302:Middlewares/Third_Party/FreeRTOS/Source/CMSIS_RTOS/cmsis_os.c ****   
1303:Middlewares/Third_Party/FreeRTOS/Source/CMSIS_RTOS/cmsis_os.c ****   taskWoken = pdFALSE;
 2951              		.loc 1 1303 3 is_stmt 1 view .LVU748
 2952              		.loc 1 1303 13 is_stmt 0 view .LVU749
 2953 000e 0023     		movs	r3, #0
 2954 0010 0393     		str	r3, [sp, #12]
1304:Middlewares/Third_Party/FreeRTOS/Source/CMSIS_RTOS/cmsis_os.c ****   
1305:Middlewares/Third_Party/FreeRTOS/Source/CMSIS_RTOS/cmsis_os.c ****   ticks = 0;
 2955              		.loc 1 1305 3 is_stmt 1 view .LVU750
 2956              	.LVL237:
1306:Middlewares/Third_Party/FreeRTOS/Source/CMSIS_RTOS/cmsis_os.c ****   if (millisec == osWaitForever) {
 2957              		.loc 1 1306 3 view .LVU751
 2958              		.loc 1 1306 6 is_stmt 0 view .LVU752
 2959 0012 B2F1FF3F 		cmp	r2, #-1
 2960 0016 08D0     		beq	.L224
1307:Middlewares/Third_Party/FreeRTOS/Source/CMSIS_RTOS/cmsis_os.c ****     ticks = portMAX_DELAY;
1308:Middlewares/Third_Party/FreeRTOS/Source/CMSIS_RTOS/cmsis_os.c ****   }
1309:Middlewares/Third_Party/FreeRTOS/Source/CMSIS_RTOS/cmsis_os.c ****   else if (millisec != 0) {
 2961              		.loc 1 1309 8 is_stmt 1 view .LVU753
 2962              		.loc 1 1309 11 is_stmt 0 view .LVU754
 2963 0018 3AB1     		cbz	r2, .L224
1310:Middlewares/Third_Party/FreeRTOS/Source/CMSIS_RTOS/cmsis_os.c ****     ticks = millisec / portTICK_PERIOD_MS;
 2964              		.loc 1 1310 5 is_stmt 1 view .LVU755
 2965              		.loc 1 1310 11 is_stmt 0 view .LVU756
ARM GAS  /tmp/ccYrIPsY.s 			page 85


 2966 001a A3F13333 		sub	r3, r3, #858993459
 2967 001e A3FB0523 		umull	r2, r3, r3, r5
 2968              	.LVL238:
 2969              		.loc 1 1310 11 view .LVU757
 2970 0022 DB08     		lsrs	r3, r3, #3
 2971              	.LVL239:
1311:Middlewares/Third_Party/FreeRTOS/Source/CMSIS_RTOS/cmsis_os.c ****     if (ticks == 0) {
 2972              		.loc 1 1311 5 is_stmt 1 view .LVU758
 2973              		.loc 1 1311 8 is_stmt 0 view .LVU759
 2974 0024 092D     		cmp	r5, #9
 2975 0026 1FD9     		bls	.L231
1310:Middlewares/Third_Party/FreeRTOS/Source/CMSIS_RTOS/cmsis_os.c ****     ticks = millisec / portTICK_PERIOD_MS;
 2976              		.loc 1 1310 11 view .LVU760
 2977 0028 1D46     		mov	r5, r3
 2978              	.LVL240:
 2979              	.L224:
1312:Middlewares/Third_Party/FreeRTOS/Source/CMSIS_RTOS/cmsis_os.c ****       ticks = 1;
1313:Middlewares/Third_Party/FreeRTOS/Source/CMSIS_RTOS/cmsis_os.c ****     }
1314:Middlewares/Third_Party/FreeRTOS/Source/CMSIS_RTOS/cmsis_os.c ****   }
1315:Middlewares/Third_Party/FreeRTOS/Source/CMSIS_RTOS/cmsis_os.c ****   
1316:Middlewares/Third_Party/FreeRTOS/Source/CMSIS_RTOS/cmsis_os.c ****   if (inHandlerMode()) {
 2980              		.loc 1 1316 3 is_stmt 1 view .LVU761
 2981              		.loc 1 1316 7 is_stmt 0 view .LVU762
 2982 002a FFF7FEFF 		bl	inHandlerMode
 2983              	.LVL241:
 2984              		.loc 1 1316 6 view .LVU763
 2985 002e 00B3     		cbz	r0, .L225
1317:Middlewares/Third_Party/FreeRTOS/Source/CMSIS_RTOS/cmsis_os.c ****     if (xQueueReceiveFromISR(queue_id->handle, &event.value.p, &taskWoken) == pdTRUE) {
 2986              		.loc 1 1317 5 is_stmt 1 view .LVU764
 2987              		.loc 1 1317 9 is_stmt 0 view .LVU765
 2988 0030 03AA     		add	r2, sp, #12
 2989 0032 01A9     		add	r1, sp, #4
 2990 0034 7068     		ldr	r0, [r6, #4]
 2991 0036 FFF7FEFF 		bl	xQueueReceiveFromISR
 2992              	.LVL242:
 2993              		.loc 1 1317 8 view .LVU766
 2994 003a 0128     		cmp	r0, #1
 2995 003c 16D0     		beq	.L235
1318:Middlewares/Third_Party/FreeRTOS/Source/CMSIS_RTOS/cmsis_os.c ****       /* We have mail */
1319:Middlewares/Third_Party/FreeRTOS/Source/CMSIS_RTOS/cmsis_os.c ****       event.status = osEventMail;
1320:Middlewares/Third_Party/FreeRTOS/Source/CMSIS_RTOS/cmsis_os.c ****     }
1321:Middlewares/Third_Party/FreeRTOS/Source/CMSIS_RTOS/cmsis_os.c ****     else {
1322:Middlewares/Third_Party/FreeRTOS/Source/CMSIS_RTOS/cmsis_os.c ****       event.status = osOK;
 2996              		.loc 1 1322 7 is_stmt 1 view .LVU767
 2997              		.loc 1 1322 20 is_stmt 0 view .LVU768
 2998 003e 0023     		movs	r3, #0
 2999 0040 0093     		str	r3, [sp]
 3000              	.L227:
1323:Middlewares/Third_Party/FreeRTOS/Source/CMSIS_RTOS/cmsis_os.c ****     }
1324:Middlewares/Third_Party/FreeRTOS/Source/CMSIS_RTOS/cmsis_os.c ****     portEND_SWITCHING_ISR(taskWoken);
 3001              		.loc 1 1324 5 is_stmt 1 view .LVU769
 3002 0042 039B     		ldr	r3, [sp, #12]
 3003 0044 FBB1     		cbz	r3, .L228
 3004              		.loc 1 1324 5 discriminator 1 view .LVU770
 3005 0046 154B     		ldr	r3, .L237
 3006 0048 4FF08052 		mov	r2, #268435456
 3007 004c 1A60     		str	r2, [r3]
ARM GAS  /tmp/ccYrIPsY.s 			page 86


 3008              		.loc 1 1324 5 discriminator 1 view .LVU771
 3009              		.syntax unified
 3010              	@ 1324 "Middlewares/Third_Party/FreeRTOS/Source/CMSIS_RTOS/cmsis_os.c" 1
 3011 004e BFF34F8F 		dsb
 3012              	@ 0 "" 2
 3013              		.loc 1 1324 5 discriminator 1 view .LVU772
 3014              	@ 1324 "Middlewares/Third_Party/FreeRTOS/Source/CMSIS_RTOS/cmsis_os.c" 1
 3015 0052 BFF36F8F 		isb
 3016              	@ 0 "" 2
 3017              		.thumb
 3018              		.syntax unified
 3019 0056 16E0     		b	.L228
 3020              	.LVL243:
 3021              	.L234:
1299:Middlewares/Third_Party/FreeRTOS/Source/CMSIS_RTOS/cmsis_os.c ****     return event;
 3022              		.loc 1 1299 5 view .LVU773
1299:Middlewares/Third_Party/FreeRTOS/Source/CMSIS_RTOS/cmsis_os.c ****     return event;
 3023              		.loc 1 1299 18 is_stmt 0 view .LVU774
 3024 0058 8023     		movs	r3, #128
 3025 005a 0093     		str	r3, [sp]
1300:Middlewares/Third_Party/FreeRTOS/Source/CMSIS_RTOS/cmsis_os.c ****   }
 3026              		.loc 1 1300 5 is_stmt 1 view .LVU775
1300:Middlewares/Third_Party/FreeRTOS/Source/CMSIS_RTOS/cmsis_os.c ****   }
 3027              		.loc 1 1300 12 is_stmt 0 view .LVU776
 3028 005c 6B46     		mov	r3, sp
 3029 005e 93E80700 		ldm	r3, {r0, r1, r2}
 3030              	.LVL244:
1300:Middlewares/Third_Party/FreeRTOS/Source/CMSIS_RTOS/cmsis_os.c ****   }
 3031              		.loc 1 1300 12 view .LVU777
 3032 0062 84E80700 		stm	r4, {r0, r1, r2}
 3033 0066 13E0     		b	.L221
 3034              	.LVL245:
 3035              	.L231:
1312:Middlewares/Third_Party/FreeRTOS/Source/CMSIS_RTOS/cmsis_os.c ****     }
 3036              		.loc 1 1312 13 view .LVU778
 3037 0068 0125     		movs	r5, #1
 3038              	.LVL246:
1312:Middlewares/Third_Party/FreeRTOS/Source/CMSIS_RTOS/cmsis_os.c ****     }
 3039              		.loc 1 1312 13 view .LVU779
 3040 006a DEE7     		b	.L224
 3041              	.LVL247:
 3042              	.L235:
1319:Middlewares/Third_Party/FreeRTOS/Source/CMSIS_RTOS/cmsis_os.c ****     }
 3043              		.loc 1 1319 7 is_stmt 1 view .LVU780
1319:Middlewares/Third_Party/FreeRTOS/Source/CMSIS_RTOS/cmsis_os.c ****     }
 3044              		.loc 1 1319 20 is_stmt 0 view .LVU781
 3045 006c 2023     		movs	r3, #32
 3046 006e 0093     		str	r3, [sp]
 3047 0070 E7E7     		b	.L227
 3048              	.L225:
1325:Middlewares/Third_Party/FreeRTOS/Source/CMSIS_RTOS/cmsis_os.c ****   }
1326:Middlewares/Third_Party/FreeRTOS/Source/CMSIS_RTOS/cmsis_os.c ****   else {
1327:Middlewares/Third_Party/FreeRTOS/Source/CMSIS_RTOS/cmsis_os.c ****     if (xQueueReceive(queue_id->handle, &event.value.p, ticks) == pdTRUE) {
 3049              		.loc 1 1327 5 is_stmt 1 view .LVU782
 3050              		.loc 1 1327 9 is_stmt 0 view .LVU783
 3051 0072 2A46     		mov	r2, r5
 3052 0074 01A9     		add	r1, sp, #4
ARM GAS  /tmp/ccYrIPsY.s 			page 87


 3053 0076 7068     		ldr	r0, [r6, #4]
 3054 0078 FFF7FEFF 		bl	xQueueReceive
 3055              	.LVL248:
 3056              		.loc 1 1327 8 view .LVU784
 3057 007c 0128     		cmp	r0, #1
 3058 007e 0AD0     		beq	.L236
1328:Middlewares/Third_Party/FreeRTOS/Source/CMSIS_RTOS/cmsis_os.c ****       /* We have mail */
1329:Middlewares/Third_Party/FreeRTOS/Source/CMSIS_RTOS/cmsis_os.c ****       event.status = osEventMail;
1330:Middlewares/Third_Party/FreeRTOS/Source/CMSIS_RTOS/cmsis_os.c ****     }
1331:Middlewares/Third_Party/FreeRTOS/Source/CMSIS_RTOS/cmsis_os.c ****     else {
1332:Middlewares/Third_Party/FreeRTOS/Source/CMSIS_RTOS/cmsis_os.c ****       event.status = (ticks == 0) ? osOK : osEventTimeout;
 3059              		.loc 1 1332 7 is_stmt 1 view .LVU785
 3060              		.loc 1 1332 42 is_stmt 0 view .LVU786
 3061 0080 05B1     		cbz	r5, .L230
 3062 0082 4025     		movs	r5, #64
 3063              	.LVL249:
 3064              	.L230:
 3065              		.loc 1 1332 20 discriminator 4 view .LVU787
 3066 0084 0095     		str	r5, [sp]
 3067              	.L228:
1333:Middlewares/Third_Party/FreeRTOS/Source/CMSIS_RTOS/cmsis_os.c ****     }
1334:Middlewares/Third_Party/FreeRTOS/Source/CMSIS_RTOS/cmsis_os.c ****   }
1335:Middlewares/Third_Party/FreeRTOS/Source/CMSIS_RTOS/cmsis_os.c ****   
1336:Middlewares/Third_Party/FreeRTOS/Source/CMSIS_RTOS/cmsis_os.c ****   return event;
 3068              		.loc 1 1336 3 is_stmt 1 view .LVU788
 3069              		.loc 1 1336 10 is_stmt 0 view .LVU789
 3070 0086 6B46     		mov	r3, sp
 3071 0088 93E80700 		ldm	r3, {r0, r1, r2}
 3072 008c 84E80700 		stm	r4, {r0, r1, r2}
 3073              	.LVL250:
 3074              	.L221:
1337:Middlewares/Third_Party/FreeRTOS/Source/CMSIS_RTOS/cmsis_os.c **** }
 3075              		.loc 1 1337 1 view .LVU790
 3076 0090 2046     		mov	r0, r4
 3077 0092 04B0     		add	sp, sp, #16
 3078              	.LCFI69:
 3079              		.cfi_remember_state
 3080              		.cfi_def_cfa_offset 16
 3081              		@ sp needed
 3082 0094 70BD     		pop	{r4, r5, r6, pc}
 3083              	.LVL251:
 3084              	.L236:
 3085              	.LCFI70:
 3086              		.cfi_restore_state
1329:Middlewares/Third_Party/FreeRTOS/Source/CMSIS_RTOS/cmsis_os.c ****     }
 3087              		.loc 1 1329 7 is_stmt 1 view .LVU791
1329:Middlewares/Third_Party/FreeRTOS/Source/CMSIS_RTOS/cmsis_os.c ****     }
 3088              		.loc 1 1329 20 is_stmt 0 view .LVU792
 3089 0096 2023     		movs	r3, #32
 3090 0098 0093     		str	r3, [sp]
 3091 009a F4E7     		b	.L228
 3092              	.L238:
 3093              		.align	2
 3094              	.L237:
 3095 009c 04ED00E0 		.word	-536810236
 3096              		.cfi_endproc
 3097              	.LFE145:
ARM GAS  /tmp/ccYrIPsY.s 			page 88


 3099              		.section	.text.osMailFree,"ax",%progbits
 3100              		.align	1
 3101              		.global	osMailFree
 3102              		.syntax unified
 3103              		.thumb
 3104              		.thumb_func
 3105              		.fpu fpv4-sp-d16
 3107              	osMailFree:
 3108              	.LVL252:
 3109              	.LFB146:
1338:Middlewares/Third_Party/FreeRTOS/Source/CMSIS_RTOS/cmsis_os.c **** 
1339:Middlewares/Third_Party/FreeRTOS/Source/CMSIS_RTOS/cmsis_os.c **** /**
1340:Middlewares/Third_Party/FreeRTOS/Source/CMSIS_RTOS/cmsis_os.c **** * @brief Free a memory block from a mail
1341:Middlewares/Third_Party/FreeRTOS/Source/CMSIS_RTOS/cmsis_os.c **** * @param  queue_id mail queue ID obtained with \ref osMailCreate.
1342:Middlewares/Third_Party/FreeRTOS/Source/CMSIS_RTOS/cmsis_os.c **** * @param  mail     pointer to the memory block that was obtained with \ref osMailGet.
1343:Middlewares/Third_Party/FreeRTOS/Source/CMSIS_RTOS/cmsis_os.c **** * @retval status code that indicates the execution status of the function.
1344:Middlewares/Third_Party/FreeRTOS/Source/CMSIS_RTOS/cmsis_os.c **** * @note   MUST REMAIN UNCHANGED: \b osMailFree shall be consistent in every CMSIS-RTOS.
1345:Middlewares/Third_Party/FreeRTOS/Source/CMSIS_RTOS/cmsis_os.c **** */
1346:Middlewares/Third_Party/FreeRTOS/Source/CMSIS_RTOS/cmsis_os.c **** osStatus osMailFree (osMailQId queue_id, void *mail)
1347:Middlewares/Third_Party/FreeRTOS/Source/CMSIS_RTOS/cmsis_os.c **** {
 3110              		.loc 1 1347 1 is_stmt 1 view -0
 3111              		.cfi_startproc
 3112              		@ args = 0, pretend = 0, frame = 0
 3113              		@ frame_needed = 0, uses_anonymous_args = 0
1348:Middlewares/Third_Party/FreeRTOS/Source/CMSIS_RTOS/cmsis_os.c ****   if (queue_id == NULL) {
 3114              		.loc 1 1348 3 view .LVU794
 3115              		.loc 1 1348 6 is_stmt 0 view .LVU795
 3116 0000 20B1     		cbz	r0, .L241
1347:Middlewares/Third_Party/FreeRTOS/Source/CMSIS_RTOS/cmsis_os.c ****   if (queue_id == NULL) {
 3117              		.loc 1 1347 1 view .LVU796
 3118 0002 08B5     		push	{r3, lr}
 3119              	.LCFI71:
 3120              		.cfi_def_cfa_offset 8
 3121              		.cfi_offset 3, -8
 3122              		.cfi_offset 14, -4
1349:Middlewares/Third_Party/FreeRTOS/Source/CMSIS_RTOS/cmsis_os.c ****     return osErrorParameter;
1350:Middlewares/Third_Party/FreeRTOS/Source/CMSIS_RTOS/cmsis_os.c ****   }
1351:Middlewares/Third_Party/FreeRTOS/Source/CMSIS_RTOS/cmsis_os.c ****   
1352:Middlewares/Third_Party/FreeRTOS/Source/CMSIS_RTOS/cmsis_os.c ****   return osPoolFree(queue_id->pool, mail);
 3123              		.loc 1 1352 3 is_stmt 1 view .LVU797
 3124              		.loc 1 1352 10 is_stmt 0 view .LVU798
 3125 0004 8068     		ldr	r0, [r0, #8]
 3126              	.LVL253:
 3127              		.loc 1 1352 10 view .LVU799
 3128 0006 FFF7FEFF 		bl	osPoolFree
 3129              	.LVL254:
1353:Middlewares/Third_Party/FreeRTOS/Source/CMSIS_RTOS/cmsis_os.c **** }
 3130              		.loc 1 1353 1 view .LVU800
 3131 000a 08BD     		pop	{r3, pc}
 3132              	.LVL255:
 3133              	.L241:
 3134              	.LCFI72:
 3135              		.cfi_def_cfa_offset 0
 3136              		.cfi_restore 3
 3137              		.cfi_restore 14
1349:Middlewares/Third_Party/FreeRTOS/Source/CMSIS_RTOS/cmsis_os.c ****     return osErrorParameter;
 3138              		.loc 1 1349 12 view .LVU801
ARM GAS  /tmp/ccYrIPsY.s 			page 89


 3139 000c 8020     		movs	r0, #128
 3140              	.LVL256:
 3141              		.loc 1 1353 1 view .LVU802
 3142 000e 7047     		bx	lr
 3143              		.cfi_endproc
 3144              	.LFE146:
 3146              		.section	.text.osSystickHandler,"ax",%progbits
 3147              		.align	1
 3148              		.global	osSystickHandler
 3149              		.syntax unified
 3150              		.thumb
 3151              		.thumb_func
 3152              		.fpu fpv4-sp-d16
 3154              	osSystickHandler:
 3155              	.LFB147:
1354:Middlewares/Third_Party/FreeRTOS/Source/CMSIS_RTOS/cmsis_os.c **** #endif  /* Use Mail Queues */
1355:Middlewares/Third_Party/FreeRTOS/Source/CMSIS_RTOS/cmsis_os.c **** 
1356:Middlewares/Third_Party/FreeRTOS/Source/CMSIS_RTOS/cmsis_os.c **** /*************************** Additional specific APIs to Free RTOS ************/
1357:Middlewares/Third_Party/FreeRTOS/Source/CMSIS_RTOS/cmsis_os.c **** /**
1358:Middlewares/Third_Party/FreeRTOS/Source/CMSIS_RTOS/cmsis_os.c **** * @brief  Handles the tick increment
1359:Middlewares/Third_Party/FreeRTOS/Source/CMSIS_RTOS/cmsis_os.c **** * @param  none.
1360:Middlewares/Third_Party/FreeRTOS/Source/CMSIS_RTOS/cmsis_os.c **** * @retval none.
1361:Middlewares/Third_Party/FreeRTOS/Source/CMSIS_RTOS/cmsis_os.c **** */
1362:Middlewares/Third_Party/FreeRTOS/Source/CMSIS_RTOS/cmsis_os.c **** void osSystickHandler(void)
1363:Middlewares/Third_Party/FreeRTOS/Source/CMSIS_RTOS/cmsis_os.c **** {
 3156              		.loc 1 1363 1 is_stmt 1 view -0
 3157              		.cfi_startproc
 3158              		@ args = 0, pretend = 0, frame = 0
 3159              		@ frame_needed = 0, uses_anonymous_args = 0
 3160 0000 08B5     		push	{r3, lr}
 3161              	.LCFI73:
 3162              		.cfi_def_cfa_offset 8
 3163              		.cfi_offset 3, -8
 3164              		.cfi_offset 14, -4
1364:Middlewares/Third_Party/FreeRTOS/Source/CMSIS_RTOS/cmsis_os.c **** 
1365:Middlewares/Third_Party/FreeRTOS/Source/CMSIS_RTOS/cmsis_os.c **** #if (INCLUDE_xTaskGetSchedulerState  == 1 )
1366:Middlewares/Third_Party/FreeRTOS/Source/CMSIS_RTOS/cmsis_os.c ****   if (xTaskGetSchedulerState() != taskSCHEDULER_NOT_STARTED)
 3165              		.loc 1 1366 3 view .LVU804
 3166              		.loc 1 1366 7 is_stmt 0 view .LVU805
 3167 0002 FFF7FEFF 		bl	xTaskGetSchedulerState
 3168              	.LVL257:
 3169              		.loc 1 1366 6 view .LVU806
 3170 0006 0128     		cmp	r0, #1
 3171 0008 00D1     		bne	.L249
 3172              	.L246:
1367:Middlewares/Third_Party/FreeRTOS/Source/CMSIS_RTOS/cmsis_os.c ****   {
1368:Middlewares/Third_Party/FreeRTOS/Source/CMSIS_RTOS/cmsis_os.c **** #endif  /* INCLUDE_xTaskGetSchedulerState */  
1369:Middlewares/Third_Party/FreeRTOS/Source/CMSIS_RTOS/cmsis_os.c ****     xPortSysTickHandler();
1370:Middlewares/Third_Party/FreeRTOS/Source/CMSIS_RTOS/cmsis_os.c **** #if (INCLUDE_xTaskGetSchedulerState  == 1 )
1371:Middlewares/Third_Party/FreeRTOS/Source/CMSIS_RTOS/cmsis_os.c ****   }
1372:Middlewares/Third_Party/FreeRTOS/Source/CMSIS_RTOS/cmsis_os.c **** #endif  /* INCLUDE_xTaskGetSchedulerState */  
1373:Middlewares/Third_Party/FreeRTOS/Source/CMSIS_RTOS/cmsis_os.c **** }
 3173              		.loc 1 1373 1 view .LVU807
 3174 000a 08BD     		pop	{r3, pc}
 3175              	.L249:
1369:Middlewares/Third_Party/FreeRTOS/Source/CMSIS_RTOS/cmsis_os.c **** #if (INCLUDE_xTaskGetSchedulerState  == 1 )
 3176              		.loc 1 1369 5 is_stmt 1 view .LVU808
ARM GAS  /tmp/ccYrIPsY.s 			page 90


 3177 000c FFF7FEFF 		bl	xPortSysTickHandler
 3178              	.LVL258:
 3179              		.loc 1 1373 1 is_stmt 0 view .LVU809
 3180 0010 FBE7     		b	.L246
 3181              		.cfi_endproc
 3182              	.LFE147:
 3184              		.section	.text.osThreadSuspend,"ax",%progbits
 3185              		.align	1
 3186              		.global	osThreadSuspend
 3187              		.syntax unified
 3188              		.thumb
 3189              		.thumb_func
 3190              		.fpu fpv4-sp-d16
 3192              	osThreadSuspend:
 3193              	.LVL259:
 3194              	.LFB148:
1374:Middlewares/Third_Party/FreeRTOS/Source/CMSIS_RTOS/cmsis_os.c **** 
1375:Middlewares/Third_Party/FreeRTOS/Source/CMSIS_RTOS/cmsis_os.c **** #if ( INCLUDE_eTaskGetState == 1 )
1376:Middlewares/Third_Party/FreeRTOS/Source/CMSIS_RTOS/cmsis_os.c **** /**
1377:Middlewares/Third_Party/FreeRTOS/Source/CMSIS_RTOS/cmsis_os.c **** * @brief  Obtain the state of any thread.
1378:Middlewares/Third_Party/FreeRTOS/Source/CMSIS_RTOS/cmsis_os.c **** * @param   thread_id   thread ID obtained by \ref osThreadCreate or \ref osThreadGetId.
1379:Middlewares/Third_Party/FreeRTOS/Source/CMSIS_RTOS/cmsis_os.c **** * @retval  the stae of the thread, states are encoded by the osThreadState enumerated type.
1380:Middlewares/Third_Party/FreeRTOS/Source/CMSIS_RTOS/cmsis_os.c **** */
1381:Middlewares/Third_Party/FreeRTOS/Source/CMSIS_RTOS/cmsis_os.c **** osThreadState osThreadGetState(osThreadId thread_id)
1382:Middlewares/Third_Party/FreeRTOS/Source/CMSIS_RTOS/cmsis_os.c **** {
1383:Middlewares/Third_Party/FreeRTOS/Source/CMSIS_RTOS/cmsis_os.c ****   eTaskState ThreadState;
1384:Middlewares/Third_Party/FreeRTOS/Source/CMSIS_RTOS/cmsis_os.c ****   osThreadState result;
1385:Middlewares/Third_Party/FreeRTOS/Source/CMSIS_RTOS/cmsis_os.c ****   
1386:Middlewares/Third_Party/FreeRTOS/Source/CMSIS_RTOS/cmsis_os.c ****   ThreadState = eTaskGetState(thread_id);
1387:Middlewares/Third_Party/FreeRTOS/Source/CMSIS_RTOS/cmsis_os.c ****   
1388:Middlewares/Third_Party/FreeRTOS/Source/CMSIS_RTOS/cmsis_os.c ****   switch (ThreadState)
1389:Middlewares/Third_Party/FreeRTOS/Source/CMSIS_RTOS/cmsis_os.c ****   {
1390:Middlewares/Third_Party/FreeRTOS/Source/CMSIS_RTOS/cmsis_os.c ****   case eRunning :
1391:Middlewares/Third_Party/FreeRTOS/Source/CMSIS_RTOS/cmsis_os.c ****     result = osThreadRunning;
1392:Middlewares/Third_Party/FreeRTOS/Source/CMSIS_RTOS/cmsis_os.c ****     break;
1393:Middlewares/Third_Party/FreeRTOS/Source/CMSIS_RTOS/cmsis_os.c ****   case eReady :
1394:Middlewares/Third_Party/FreeRTOS/Source/CMSIS_RTOS/cmsis_os.c ****     result = osThreadReady;
1395:Middlewares/Third_Party/FreeRTOS/Source/CMSIS_RTOS/cmsis_os.c ****     break;
1396:Middlewares/Third_Party/FreeRTOS/Source/CMSIS_RTOS/cmsis_os.c ****   case eBlocked :
1397:Middlewares/Third_Party/FreeRTOS/Source/CMSIS_RTOS/cmsis_os.c ****     result = osThreadBlocked;
1398:Middlewares/Third_Party/FreeRTOS/Source/CMSIS_RTOS/cmsis_os.c ****     break;
1399:Middlewares/Third_Party/FreeRTOS/Source/CMSIS_RTOS/cmsis_os.c ****   case eSuspended :
1400:Middlewares/Third_Party/FreeRTOS/Source/CMSIS_RTOS/cmsis_os.c ****     result = osThreadSuspended;
1401:Middlewares/Third_Party/FreeRTOS/Source/CMSIS_RTOS/cmsis_os.c ****     break;
1402:Middlewares/Third_Party/FreeRTOS/Source/CMSIS_RTOS/cmsis_os.c ****   case eDeleted :
1403:Middlewares/Third_Party/FreeRTOS/Source/CMSIS_RTOS/cmsis_os.c ****     result = osThreadDeleted;
1404:Middlewares/Third_Party/FreeRTOS/Source/CMSIS_RTOS/cmsis_os.c ****     break;
1405:Middlewares/Third_Party/FreeRTOS/Source/CMSIS_RTOS/cmsis_os.c ****   default:
1406:Middlewares/Third_Party/FreeRTOS/Source/CMSIS_RTOS/cmsis_os.c ****     result = osThreadError;
1407:Middlewares/Third_Party/FreeRTOS/Source/CMSIS_RTOS/cmsis_os.c ****   } 
1408:Middlewares/Third_Party/FreeRTOS/Source/CMSIS_RTOS/cmsis_os.c ****   
1409:Middlewares/Third_Party/FreeRTOS/Source/CMSIS_RTOS/cmsis_os.c ****   return result;
1410:Middlewares/Third_Party/FreeRTOS/Source/CMSIS_RTOS/cmsis_os.c **** }
1411:Middlewares/Third_Party/FreeRTOS/Source/CMSIS_RTOS/cmsis_os.c **** #endif /* INCLUDE_eTaskGetState */
1412:Middlewares/Third_Party/FreeRTOS/Source/CMSIS_RTOS/cmsis_os.c **** 
1413:Middlewares/Third_Party/FreeRTOS/Source/CMSIS_RTOS/cmsis_os.c **** #if (INCLUDE_eTaskGetState == 1)
1414:Middlewares/Third_Party/FreeRTOS/Source/CMSIS_RTOS/cmsis_os.c **** /**
ARM GAS  /tmp/ccYrIPsY.s 			page 91


1415:Middlewares/Third_Party/FreeRTOS/Source/CMSIS_RTOS/cmsis_os.c **** * @brief Check if a thread is already suspended or not.
1416:Middlewares/Third_Party/FreeRTOS/Source/CMSIS_RTOS/cmsis_os.c **** * @param thread_id thread ID obtained by \ref osThreadCreate or \ref osThreadGetId.
1417:Middlewares/Third_Party/FreeRTOS/Source/CMSIS_RTOS/cmsis_os.c **** * @retval status code that indicates the execution status of the function.
1418:Middlewares/Third_Party/FreeRTOS/Source/CMSIS_RTOS/cmsis_os.c **** */
1419:Middlewares/Third_Party/FreeRTOS/Source/CMSIS_RTOS/cmsis_os.c **** osStatus osThreadIsSuspended(osThreadId thread_id)
1420:Middlewares/Third_Party/FreeRTOS/Source/CMSIS_RTOS/cmsis_os.c **** {
1421:Middlewares/Third_Party/FreeRTOS/Source/CMSIS_RTOS/cmsis_os.c ****   if (eTaskGetState(thread_id) == eSuspended)
1422:Middlewares/Third_Party/FreeRTOS/Source/CMSIS_RTOS/cmsis_os.c ****     return osOK;
1423:Middlewares/Third_Party/FreeRTOS/Source/CMSIS_RTOS/cmsis_os.c ****   else
1424:Middlewares/Third_Party/FreeRTOS/Source/CMSIS_RTOS/cmsis_os.c ****     return osErrorOS;
1425:Middlewares/Third_Party/FreeRTOS/Source/CMSIS_RTOS/cmsis_os.c **** }
1426:Middlewares/Third_Party/FreeRTOS/Source/CMSIS_RTOS/cmsis_os.c **** #endif /* INCLUDE_eTaskGetState */
1427:Middlewares/Third_Party/FreeRTOS/Source/CMSIS_RTOS/cmsis_os.c **** /**
1428:Middlewares/Third_Party/FreeRTOS/Source/CMSIS_RTOS/cmsis_os.c **** * @brief  Suspend execution of a thread.
1429:Middlewares/Third_Party/FreeRTOS/Source/CMSIS_RTOS/cmsis_os.c **** * @param   thread_id   thread ID obtained by \ref osThreadCreate or \ref osThreadGetId.
1430:Middlewares/Third_Party/FreeRTOS/Source/CMSIS_RTOS/cmsis_os.c **** * @retval  status code that indicates the execution status of the function.
1431:Middlewares/Third_Party/FreeRTOS/Source/CMSIS_RTOS/cmsis_os.c **** */
1432:Middlewares/Third_Party/FreeRTOS/Source/CMSIS_RTOS/cmsis_os.c **** osStatus osThreadSuspend (osThreadId thread_id)
1433:Middlewares/Third_Party/FreeRTOS/Source/CMSIS_RTOS/cmsis_os.c **** {
 3195              		.loc 1 1433 1 is_stmt 1 view -0
 3196              		.cfi_startproc
 3197              		@ args = 0, pretend = 0, frame = 0
 3198              		@ frame_needed = 0, uses_anonymous_args = 0
 3199              		.loc 1 1433 1 is_stmt 0 view .LVU811
 3200 0000 08B5     		push	{r3, lr}
 3201              	.LCFI74:
 3202              		.cfi_def_cfa_offset 8
 3203              		.cfi_offset 3, -8
 3204              		.cfi_offset 14, -4
1434:Middlewares/Third_Party/FreeRTOS/Source/CMSIS_RTOS/cmsis_os.c **** #if (INCLUDE_vTaskSuspend == 1)
1435:Middlewares/Third_Party/FreeRTOS/Source/CMSIS_RTOS/cmsis_os.c ****     vTaskSuspend(thread_id);
 3205              		.loc 1 1435 5 is_stmt 1 view .LVU812
 3206 0002 FFF7FEFF 		bl	vTaskSuspend
 3207              	.LVL260:
1436:Middlewares/Third_Party/FreeRTOS/Source/CMSIS_RTOS/cmsis_os.c ****   
1437:Middlewares/Third_Party/FreeRTOS/Source/CMSIS_RTOS/cmsis_os.c ****   return osOK;
 3208              		.loc 1 1437 3 view .LVU813
1438:Middlewares/Third_Party/FreeRTOS/Source/CMSIS_RTOS/cmsis_os.c **** #else
1439:Middlewares/Third_Party/FreeRTOS/Source/CMSIS_RTOS/cmsis_os.c ****   return osErrorResource;
1440:Middlewares/Third_Party/FreeRTOS/Source/CMSIS_RTOS/cmsis_os.c **** #endif
1441:Middlewares/Third_Party/FreeRTOS/Source/CMSIS_RTOS/cmsis_os.c **** }
 3209              		.loc 1 1441 1 is_stmt 0 view .LVU814
 3210 0006 0020     		movs	r0, #0
 3211 0008 08BD     		pop	{r3, pc}
 3212              		.cfi_endproc
 3213              	.LFE148:
 3215              		.section	.text.osThreadResume,"ax",%progbits
 3216              		.align	1
 3217              		.global	osThreadResume
 3218              		.syntax unified
 3219              		.thumb
 3220              		.thumb_func
 3221              		.fpu fpv4-sp-d16
 3223              	osThreadResume:
 3224              	.LVL261:
 3225              	.LFB149:
1442:Middlewares/Third_Party/FreeRTOS/Source/CMSIS_RTOS/cmsis_os.c **** 
ARM GAS  /tmp/ccYrIPsY.s 			page 92


1443:Middlewares/Third_Party/FreeRTOS/Source/CMSIS_RTOS/cmsis_os.c **** /**
1444:Middlewares/Third_Party/FreeRTOS/Source/CMSIS_RTOS/cmsis_os.c **** * @brief  Resume execution of a suspended thread.
1445:Middlewares/Third_Party/FreeRTOS/Source/CMSIS_RTOS/cmsis_os.c **** * @param   thread_id   thread ID obtained by \ref osThreadCreate or \ref osThreadGetId.
1446:Middlewares/Third_Party/FreeRTOS/Source/CMSIS_RTOS/cmsis_os.c **** * @retval  status code that indicates the execution status of the function.
1447:Middlewares/Third_Party/FreeRTOS/Source/CMSIS_RTOS/cmsis_os.c **** */
1448:Middlewares/Third_Party/FreeRTOS/Source/CMSIS_RTOS/cmsis_os.c **** osStatus osThreadResume (osThreadId thread_id)
1449:Middlewares/Third_Party/FreeRTOS/Source/CMSIS_RTOS/cmsis_os.c **** {
 3226              		.loc 1 1449 1 is_stmt 1 view -0
 3227              		.cfi_startproc
 3228              		@ args = 0, pretend = 0, frame = 0
 3229              		@ frame_needed = 0, uses_anonymous_args = 0
 3230              		.loc 1 1449 1 is_stmt 0 view .LVU816
 3231 0000 10B5     		push	{r4, lr}
 3232              	.LCFI75:
 3233              		.cfi_def_cfa_offset 8
 3234              		.cfi_offset 4, -8
 3235              		.cfi_offset 14, -4
 3236 0002 0446     		mov	r4, r0
1450:Middlewares/Third_Party/FreeRTOS/Source/CMSIS_RTOS/cmsis_os.c **** #if (INCLUDE_vTaskSuspend == 1)  
1451:Middlewares/Third_Party/FreeRTOS/Source/CMSIS_RTOS/cmsis_os.c ****   if(inHandlerMode())
 3237              		.loc 1 1451 3 is_stmt 1 view .LVU817
 3238              		.loc 1 1451 6 is_stmt 0 view .LVU818
 3239 0004 FFF7FEFF 		bl	inHandlerMode
 3240              	.LVL262:
 3241              		.loc 1 1451 5 view .LVU819
 3242 0008 68B1     		cbz	r0, .L253
1452:Middlewares/Third_Party/FreeRTOS/Source/CMSIS_RTOS/cmsis_os.c ****   {
1453:Middlewares/Third_Party/FreeRTOS/Source/CMSIS_RTOS/cmsis_os.c ****     if (xTaskResumeFromISR(thread_id) == pdTRUE)
 3243              		.loc 1 1453 5 is_stmt 1 view .LVU820
 3244              		.loc 1 1453 9 is_stmt 0 view .LVU821
 3245 000a 2046     		mov	r0, r4
 3246 000c FFF7FEFF 		bl	xTaskResumeFromISR
 3247              	.LVL263:
 3248              		.loc 1 1453 8 view .LVU822
 3249 0010 0128     		cmp	r0, #1
 3250 0012 0BD1     		bne	.L254
1454:Middlewares/Third_Party/FreeRTOS/Source/CMSIS_RTOS/cmsis_os.c ****     {
1455:Middlewares/Third_Party/FreeRTOS/Source/CMSIS_RTOS/cmsis_os.c ****       portYIELD_FROM_ISR(pdTRUE);
 3251              		.loc 1 1455 7 is_stmt 1 discriminator 1 view .LVU823
 3252              		.loc 1 1455 7 discriminator 1 view .LVU824
 3253 0014 064B     		ldr	r3, .L256
 3254 0016 4FF08052 		mov	r2, #268435456
 3255 001a 1A60     		str	r2, [r3]
 3256              		.loc 1 1455 7 discriminator 1 view .LVU825
 3257              		.syntax unified
 3258              	@ 1455 "Middlewares/Third_Party/FreeRTOS/Source/CMSIS_RTOS/cmsis_os.c" 1
 3259 001c BFF34F8F 		dsb
 3260              	@ 0 "" 2
 3261              		.loc 1 1455 7 discriminator 1 view .LVU826
 3262              	@ 1455 "Middlewares/Third_Party/FreeRTOS/Source/CMSIS_RTOS/cmsis_os.c" 1
 3263 0020 BFF36F8F 		isb
 3264              	@ 0 "" 2
 3265              		.thumb
 3266              		.syntax unified
 3267 0024 02E0     		b	.L254
 3268              	.L253:
1456:Middlewares/Third_Party/FreeRTOS/Source/CMSIS_RTOS/cmsis_os.c ****     }
ARM GAS  /tmp/ccYrIPsY.s 			page 93


1457:Middlewares/Third_Party/FreeRTOS/Source/CMSIS_RTOS/cmsis_os.c ****   }
1458:Middlewares/Third_Party/FreeRTOS/Source/CMSIS_RTOS/cmsis_os.c ****   else
1459:Middlewares/Third_Party/FreeRTOS/Source/CMSIS_RTOS/cmsis_os.c ****   {
1460:Middlewares/Third_Party/FreeRTOS/Source/CMSIS_RTOS/cmsis_os.c ****     vTaskResume(thread_id);
 3269              		.loc 1 1460 5 view .LVU827
 3270 0026 2046     		mov	r0, r4
 3271 0028 FFF7FEFF 		bl	vTaskResume
 3272              	.LVL264:
 3273              	.L254:
1461:Middlewares/Third_Party/FreeRTOS/Source/CMSIS_RTOS/cmsis_os.c ****   }
1462:Middlewares/Third_Party/FreeRTOS/Source/CMSIS_RTOS/cmsis_os.c ****   return osOK;
 3274              		.loc 1 1462 3 view .LVU828
1463:Middlewares/Third_Party/FreeRTOS/Source/CMSIS_RTOS/cmsis_os.c **** #else
1464:Middlewares/Third_Party/FreeRTOS/Source/CMSIS_RTOS/cmsis_os.c ****   return osErrorResource;
1465:Middlewares/Third_Party/FreeRTOS/Source/CMSIS_RTOS/cmsis_os.c **** #endif
1466:Middlewares/Third_Party/FreeRTOS/Source/CMSIS_RTOS/cmsis_os.c **** }
 3275              		.loc 1 1466 1 is_stmt 0 view .LVU829
 3276 002c 0020     		movs	r0, #0
 3277 002e 10BD     		pop	{r4, pc}
 3278              	.LVL265:
 3279              	.L257:
 3280              		.loc 1 1466 1 view .LVU830
 3281              		.align	2
 3282              	.L256:
 3283 0030 04ED00E0 		.word	-536810236
 3284              		.cfi_endproc
 3285              	.LFE149:
 3287              		.section	.text.osThreadSuspendAll,"ax",%progbits
 3288              		.align	1
 3289              		.global	osThreadSuspendAll
 3290              		.syntax unified
 3291              		.thumb
 3292              		.thumb_func
 3293              		.fpu fpv4-sp-d16
 3295              	osThreadSuspendAll:
 3296              	.LFB150:
1467:Middlewares/Third_Party/FreeRTOS/Source/CMSIS_RTOS/cmsis_os.c **** 
1468:Middlewares/Third_Party/FreeRTOS/Source/CMSIS_RTOS/cmsis_os.c **** /**
1469:Middlewares/Third_Party/FreeRTOS/Source/CMSIS_RTOS/cmsis_os.c **** * @brief  Suspend execution of a all active threads.
1470:Middlewares/Third_Party/FreeRTOS/Source/CMSIS_RTOS/cmsis_os.c **** * @retval  status code that indicates the execution status of the function.
1471:Middlewares/Third_Party/FreeRTOS/Source/CMSIS_RTOS/cmsis_os.c **** */
1472:Middlewares/Third_Party/FreeRTOS/Source/CMSIS_RTOS/cmsis_os.c **** osStatus osThreadSuspendAll (void)
1473:Middlewares/Third_Party/FreeRTOS/Source/CMSIS_RTOS/cmsis_os.c **** {
 3297              		.loc 1 1473 1 is_stmt 1 view -0
 3298              		.cfi_startproc
 3299              		@ args = 0, pretend = 0, frame = 0
 3300              		@ frame_needed = 0, uses_anonymous_args = 0
 3301 0000 08B5     		push	{r3, lr}
 3302              	.LCFI76:
 3303              		.cfi_def_cfa_offset 8
 3304              		.cfi_offset 3, -8
 3305              		.cfi_offset 14, -4
1474:Middlewares/Third_Party/FreeRTOS/Source/CMSIS_RTOS/cmsis_os.c ****   vTaskSuspendAll();
 3306              		.loc 1 1474 3 view .LVU832
 3307 0002 FFF7FEFF 		bl	vTaskSuspendAll
 3308              	.LVL266:
1475:Middlewares/Third_Party/FreeRTOS/Source/CMSIS_RTOS/cmsis_os.c ****   
ARM GAS  /tmp/ccYrIPsY.s 			page 94


1476:Middlewares/Third_Party/FreeRTOS/Source/CMSIS_RTOS/cmsis_os.c ****   return osOK;
 3309              		.loc 1 1476 3 view .LVU833
1477:Middlewares/Third_Party/FreeRTOS/Source/CMSIS_RTOS/cmsis_os.c **** }
 3310              		.loc 1 1477 1 is_stmt 0 view .LVU834
 3311 0006 0020     		movs	r0, #0
 3312 0008 08BD     		pop	{r3, pc}
 3313              		.cfi_endproc
 3314              	.LFE150:
 3316              		.section	.text.osThreadResumeAll,"ax",%progbits
 3317              		.align	1
 3318              		.global	osThreadResumeAll
 3319              		.syntax unified
 3320              		.thumb
 3321              		.thumb_func
 3322              		.fpu fpv4-sp-d16
 3324              	osThreadResumeAll:
 3325              	.LFB151:
1478:Middlewares/Third_Party/FreeRTOS/Source/CMSIS_RTOS/cmsis_os.c **** 
1479:Middlewares/Third_Party/FreeRTOS/Source/CMSIS_RTOS/cmsis_os.c **** /**
1480:Middlewares/Third_Party/FreeRTOS/Source/CMSIS_RTOS/cmsis_os.c **** * @brief  Resume execution of a all suspended threads.
1481:Middlewares/Third_Party/FreeRTOS/Source/CMSIS_RTOS/cmsis_os.c **** * @retval  status code that indicates the execution status of the function.
1482:Middlewares/Third_Party/FreeRTOS/Source/CMSIS_RTOS/cmsis_os.c **** */
1483:Middlewares/Third_Party/FreeRTOS/Source/CMSIS_RTOS/cmsis_os.c **** osStatus osThreadResumeAll (void)
1484:Middlewares/Third_Party/FreeRTOS/Source/CMSIS_RTOS/cmsis_os.c **** {
 3326              		.loc 1 1484 1 is_stmt 1 view -0
 3327              		.cfi_startproc
 3328              		@ args = 0, pretend = 0, frame = 0
 3329              		@ frame_needed = 0, uses_anonymous_args = 0
 3330 0000 08B5     		push	{r3, lr}
 3331              	.LCFI77:
 3332              		.cfi_def_cfa_offset 8
 3333              		.cfi_offset 3, -8
 3334              		.cfi_offset 14, -4
1485:Middlewares/Third_Party/FreeRTOS/Source/CMSIS_RTOS/cmsis_os.c ****   if (xTaskResumeAll() == pdTRUE)
 3335              		.loc 1 1485 3 view .LVU836
 3336              		.loc 1 1485 7 is_stmt 0 view .LVU837
 3337 0002 FFF7FEFF 		bl	xTaskResumeAll
 3338              	.LVL267:
 3339              		.loc 1 1485 6 view .LVU838
 3340 0006 0128     		cmp	r0, #1
 3341 0008 01D0     		beq	.L264
1486:Middlewares/Third_Party/FreeRTOS/Source/CMSIS_RTOS/cmsis_os.c ****     return osOK;
1487:Middlewares/Third_Party/FreeRTOS/Source/CMSIS_RTOS/cmsis_os.c ****   else
1488:Middlewares/Third_Party/FreeRTOS/Source/CMSIS_RTOS/cmsis_os.c ****     return osErrorOS;
 3342              		.loc 1 1488 12 view .LVU839
 3343 000a FF20     		movs	r0, #255
 3344              	.L260:
1489:Middlewares/Third_Party/FreeRTOS/Source/CMSIS_RTOS/cmsis_os.c ****   
1490:Middlewares/Third_Party/FreeRTOS/Source/CMSIS_RTOS/cmsis_os.c **** }
 3345              		.loc 1 1490 1 view .LVU840
 3346 000c 08BD     		pop	{r3, pc}
 3347              	.L264:
1486:Middlewares/Third_Party/FreeRTOS/Source/CMSIS_RTOS/cmsis_os.c ****     return osOK;
 3348              		.loc 1 1486 12 view .LVU841
 3349 000e 0020     		movs	r0, #0
 3350 0010 FCE7     		b	.L260
 3351              		.cfi_endproc
ARM GAS  /tmp/ccYrIPsY.s 			page 95


 3352              	.LFE151:
 3354              		.section	.text.osDelayUntil,"ax",%progbits
 3355              		.align	1
 3356              		.global	osDelayUntil
 3357              		.syntax unified
 3358              		.thumb
 3359              		.thumb_func
 3360              		.fpu fpv4-sp-d16
 3362              	osDelayUntil:
 3363              	.LVL268:
 3364              	.LFB152:
1491:Middlewares/Third_Party/FreeRTOS/Source/CMSIS_RTOS/cmsis_os.c **** 
1492:Middlewares/Third_Party/FreeRTOS/Source/CMSIS_RTOS/cmsis_os.c **** /**
1493:Middlewares/Third_Party/FreeRTOS/Source/CMSIS_RTOS/cmsis_os.c **** * @brief  Delay a task until a specified time
1494:Middlewares/Third_Party/FreeRTOS/Source/CMSIS_RTOS/cmsis_os.c **** * @param   PreviousWakeTime   Pointer to a variable that holds the time at which the 
1495:Middlewares/Third_Party/FreeRTOS/Source/CMSIS_RTOS/cmsis_os.c **** *          task was last unblocked. PreviousWakeTime must be initialised with the current time
1496:Middlewares/Third_Party/FreeRTOS/Source/CMSIS_RTOS/cmsis_os.c **** *          prior to its first use (PreviousWakeTime = osKernelSysTick() )
1497:Middlewares/Third_Party/FreeRTOS/Source/CMSIS_RTOS/cmsis_os.c **** * @param   millisec    time delay value
1498:Middlewares/Third_Party/FreeRTOS/Source/CMSIS_RTOS/cmsis_os.c **** * @retval  status code that indicates the execution status of the function.
1499:Middlewares/Third_Party/FreeRTOS/Source/CMSIS_RTOS/cmsis_os.c **** */
1500:Middlewares/Third_Party/FreeRTOS/Source/CMSIS_RTOS/cmsis_os.c **** osStatus osDelayUntil (uint32_t *PreviousWakeTime, uint32_t millisec)
1501:Middlewares/Third_Party/FreeRTOS/Source/CMSIS_RTOS/cmsis_os.c **** {
 3365              		.loc 1 1501 1 is_stmt 1 view -0
 3366              		.cfi_startproc
 3367              		@ args = 0, pretend = 0, frame = 0
 3368              		@ frame_needed = 0, uses_anonymous_args = 0
 3369              		@ link register save eliminated.
1502:Middlewares/Third_Party/FreeRTOS/Source/CMSIS_RTOS/cmsis_os.c **** #if INCLUDE_vTaskDelayUntil
1503:Middlewares/Third_Party/FreeRTOS/Source/CMSIS_RTOS/cmsis_os.c ****   TickType_t ticks = (millisec / portTICK_PERIOD_MS);
1504:Middlewares/Third_Party/FreeRTOS/Source/CMSIS_RTOS/cmsis_os.c ****   vTaskDelayUntil((TickType_t *) PreviousWakeTime, ticks ? ticks : 1);
1505:Middlewares/Third_Party/FreeRTOS/Source/CMSIS_RTOS/cmsis_os.c ****   
1506:Middlewares/Third_Party/FreeRTOS/Source/CMSIS_RTOS/cmsis_os.c ****   return osOK;
1507:Middlewares/Third_Party/FreeRTOS/Source/CMSIS_RTOS/cmsis_os.c **** #else
1508:Middlewares/Third_Party/FreeRTOS/Source/CMSIS_RTOS/cmsis_os.c ****   (void) millisec;
 3370              		.loc 1 1508 3 view .LVU843
1509:Middlewares/Third_Party/FreeRTOS/Source/CMSIS_RTOS/cmsis_os.c ****   (void) PreviousWakeTime;
 3371              		.loc 1 1509 3 view .LVU844
1510:Middlewares/Third_Party/FreeRTOS/Source/CMSIS_RTOS/cmsis_os.c ****   
1511:Middlewares/Third_Party/FreeRTOS/Source/CMSIS_RTOS/cmsis_os.c ****   return osErrorResource;
 3372              		.loc 1 1511 3 view .LVU845
1512:Middlewares/Third_Party/FreeRTOS/Source/CMSIS_RTOS/cmsis_os.c **** #endif
1513:Middlewares/Third_Party/FreeRTOS/Source/CMSIS_RTOS/cmsis_os.c **** }
 3373              		.loc 1 1513 1 is_stmt 0 view .LVU846
 3374 0000 8120     		movs	r0, #129
 3375              	.LVL269:
 3376              		.loc 1 1513 1 view .LVU847
 3377 0002 7047     		bx	lr
 3378              		.cfi_endproc
 3379              	.LFE152:
 3381              		.section	.text.osAbortDelay,"ax",%progbits
 3382              		.align	1
 3383              		.global	osAbortDelay
 3384              		.syntax unified
 3385              		.thumb
 3386              		.thumb_func
 3387              		.fpu fpv4-sp-d16
 3389              	osAbortDelay:
ARM GAS  /tmp/ccYrIPsY.s 			page 96


 3390              	.LVL270:
 3391              	.LFB153:
1514:Middlewares/Third_Party/FreeRTOS/Source/CMSIS_RTOS/cmsis_os.c **** 
1515:Middlewares/Third_Party/FreeRTOS/Source/CMSIS_RTOS/cmsis_os.c **** /**
1516:Middlewares/Third_Party/FreeRTOS/Source/CMSIS_RTOS/cmsis_os.c **** * @brief   Abort the delay for a specific thread
1517:Middlewares/Third_Party/FreeRTOS/Source/CMSIS_RTOS/cmsis_os.c **** * @param   thread_id   thread ID obtained by \ref osThreadCreate or \ref osThreadGetId   
1518:Middlewares/Third_Party/FreeRTOS/Source/CMSIS_RTOS/cmsis_os.c **** * @retval  status code that indicates the execution status of the function.
1519:Middlewares/Third_Party/FreeRTOS/Source/CMSIS_RTOS/cmsis_os.c **** */
1520:Middlewares/Third_Party/FreeRTOS/Source/CMSIS_RTOS/cmsis_os.c **** osStatus osAbortDelay(osThreadId thread_id)
1521:Middlewares/Third_Party/FreeRTOS/Source/CMSIS_RTOS/cmsis_os.c **** {
 3392              		.loc 1 1521 1 is_stmt 1 view -0
 3393              		.cfi_startproc
 3394              		@ args = 0, pretend = 0, frame = 0
 3395              		@ frame_needed = 0, uses_anonymous_args = 0
 3396              		@ link register save eliminated.
1522:Middlewares/Third_Party/FreeRTOS/Source/CMSIS_RTOS/cmsis_os.c **** #if INCLUDE_xTaskAbortDelay
1523:Middlewares/Third_Party/FreeRTOS/Source/CMSIS_RTOS/cmsis_os.c ****   
1524:Middlewares/Third_Party/FreeRTOS/Source/CMSIS_RTOS/cmsis_os.c ****   xTaskAbortDelay(thread_id);
1525:Middlewares/Third_Party/FreeRTOS/Source/CMSIS_RTOS/cmsis_os.c ****   
1526:Middlewares/Third_Party/FreeRTOS/Source/CMSIS_RTOS/cmsis_os.c ****   return osOK;
1527:Middlewares/Third_Party/FreeRTOS/Source/CMSIS_RTOS/cmsis_os.c **** #else
1528:Middlewares/Third_Party/FreeRTOS/Source/CMSIS_RTOS/cmsis_os.c ****   (void) thread_id;
 3397              		.loc 1 1528 3 view .LVU849
1529:Middlewares/Third_Party/FreeRTOS/Source/CMSIS_RTOS/cmsis_os.c ****   
1530:Middlewares/Third_Party/FreeRTOS/Source/CMSIS_RTOS/cmsis_os.c ****   return osErrorResource;
 3398              		.loc 1 1530 3 view .LVU850
1531:Middlewares/Third_Party/FreeRTOS/Source/CMSIS_RTOS/cmsis_os.c **** #endif
1532:Middlewares/Third_Party/FreeRTOS/Source/CMSIS_RTOS/cmsis_os.c **** }
 3399              		.loc 1 1532 1 is_stmt 0 view .LVU851
 3400 0000 8120     		movs	r0, #129
 3401              	.LVL271:
 3402              		.loc 1 1532 1 view .LVU852
 3403 0002 7047     		bx	lr
 3404              		.cfi_endproc
 3405              	.LFE153:
 3407              		.section	.text.osThreadList,"ax",%progbits
 3408              		.align	1
 3409              		.global	osThreadList
 3410              		.syntax unified
 3411              		.thumb
 3412              		.thumb_func
 3413              		.fpu fpv4-sp-d16
 3415              	osThreadList:
 3416              	.LVL272:
 3417              	.LFB154:
1533:Middlewares/Third_Party/FreeRTOS/Source/CMSIS_RTOS/cmsis_os.c **** 
1534:Middlewares/Third_Party/FreeRTOS/Source/CMSIS_RTOS/cmsis_os.c **** /**
1535:Middlewares/Third_Party/FreeRTOS/Source/CMSIS_RTOS/cmsis_os.c **** * @brief   Lists all the current threads, along with their current state 
1536:Middlewares/Third_Party/FreeRTOS/Source/CMSIS_RTOS/cmsis_os.c **** *          and stack usage high water mark.
1537:Middlewares/Third_Party/FreeRTOS/Source/CMSIS_RTOS/cmsis_os.c **** * @param   buffer   A buffer into which the above mentioned details
1538:Middlewares/Third_Party/FreeRTOS/Source/CMSIS_RTOS/cmsis_os.c **** *          will be written
1539:Middlewares/Third_Party/FreeRTOS/Source/CMSIS_RTOS/cmsis_os.c **** * @retval  status code that indicates the execution status of the function.
1540:Middlewares/Third_Party/FreeRTOS/Source/CMSIS_RTOS/cmsis_os.c **** */
1541:Middlewares/Third_Party/FreeRTOS/Source/CMSIS_RTOS/cmsis_os.c **** osStatus osThreadList (uint8_t *buffer)
1542:Middlewares/Third_Party/FreeRTOS/Source/CMSIS_RTOS/cmsis_os.c **** {
 3418              		.loc 1 1542 1 is_stmt 1 view -0
 3419              		.cfi_startproc
ARM GAS  /tmp/ccYrIPsY.s 			page 97


 3420              		@ args = 0, pretend = 0, frame = 0
 3421              		@ frame_needed = 0, uses_anonymous_args = 0
 3422              		@ link register save eliminated.
1543:Middlewares/Third_Party/FreeRTOS/Source/CMSIS_RTOS/cmsis_os.c **** #if ( ( configUSE_TRACE_FACILITY == 1 ) && ( configUSE_STATS_FORMATTING_FUNCTIONS == 1 ) )
1544:Middlewares/Third_Party/FreeRTOS/Source/CMSIS_RTOS/cmsis_os.c ****   vTaskList((char *)buffer);
1545:Middlewares/Third_Party/FreeRTOS/Source/CMSIS_RTOS/cmsis_os.c **** #endif
1546:Middlewares/Third_Party/FreeRTOS/Source/CMSIS_RTOS/cmsis_os.c ****   return osOK;
 3423              		.loc 1 1546 3 view .LVU854
1547:Middlewares/Third_Party/FreeRTOS/Source/CMSIS_RTOS/cmsis_os.c **** }
 3424              		.loc 1 1547 1 is_stmt 0 view .LVU855
 3425 0000 0020     		movs	r0, #0
 3426              	.LVL273:
 3427              		.loc 1 1547 1 view .LVU856
 3428 0002 7047     		bx	lr
 3429              		.cfi_endproc
 3430              	.LFE154:
 3432              		.section	.text.osMessagePeek,"ax",%progbits
 3433              		.align	1
 3434              		.global	osMessagePeek
 3435              		.syntax unified
 3436              		.thumb
 3437              		.thumb_func
 3438              		.fpu fpv4-sp-d16
 3440              	osMessagePeek:
 3441              	.LVL274:
 3442              	.LFB155:
1548:Middlewares/Third_Party/FreeRTOS/Source/CMSIS_RTOS/cmsis_os.c **** 
1549:Middlewares/Third_Party/FreeRTOS/Source/CMSIS_RTOS/cmsis_os.c **** /**
1550:Middlewares/Third_Party/FreeRTOS/Source/CMSIS_RTOS/cmsis_os.c **** * @brief  Receive an item from a queue without removing the item from the queue.
1551:Middlewares/Third_Party/FreeRTOS/Source/CMSIS_RTOS/cmsis_os.c **** * @param  queue_id  message queue ID obtained with \ref osMessageCreate.
1552:Middlewares/Third_Party/FreeRTOS/Source/CMSIS_RTOS/cmsis_os.c **** * @param  millisec  timeout value or 0 in case of no time-out.
1553:Middlewares/Third_Party/FreeRTOS/Source/CMSIS_RTOS/cmsis_os.c **** * @retval event information that includes status code.
1554:Middlewares/Third_Party/FreeRTOS/Source/CMSIS_RTOS/cmsis_os.c **** */
1555:Middlewares/Third_Party/FreeRTOS/Source/CMSIS_RTOS/cmsis_os.c **** osEvent osMessagePeek (osMessageQId queue_id, uint32_t millisec)
1556:Middlewares/Third_Party/FreeRTOS/Source/CMSIS_RTOS/cmsis_os.c **** {
 3443              		.loc 1 1556 1 is_stmt 1 view -0
 3444              		.cfi_startproc
 3445              		@ args = 0, pretend = 0, frame = 16
 3446              		@ frame_needed = 0, uses_anonymous_args = 0
 3447              		.loc 1 1556 1 is_stmt 0 view .LVU858
 3448 0000 30B5     		push	{r4, r5, lr}
 3449              	.LCFI78:
 3450              		.cfi_def_cfa_offset 12
 3451              		.cfi_offset 4, -12
 3452              		.cfi_offset 5, -8
 3453              		.cfi_offset 14, -4
 3454 0002 85B0     		sub	sp, sp, #20
 3455              	.LCFI79:
 3456              		.cfi_def_cfa_offset 32
 3457 0004 0546     		mov	r5, r0
1557:Middlewares/Third_Party/FreeRTOS/Source/CMSIS_RTOS/cmsis_os.c ****   TickType_t ticks;
 3458              		.loc 1 1557 3 is_stmt 1 view .LVU859
1558:Middlewares/Third_Party/FreeRTOS/Source/CMSIS_RTOS/cmsis_os.c ****   osEvent event;
 3459              		.loc 1 1558 3 view .LVU860
1559:Middlewares/Third_Party/FreeRTOS/Source/CMSIS_RTOS/cmsis_os.c ****   
1560:Middlewares/Third_Party/FreeRTOS/Source/CMSIS_RTOS/cmsis_os.c ****   event.def.message_id = queue_id;
 3460              		.loc 1 1560 3 view .LVU861
ARM GAS  /tmp/ccYrIPsY.s 			page 98


 3461              		.loc 1 1560 24 is_stmt 0 view .LVU862
 3462 0006 0391     		str	r1, [sp, #12]
1561:Middlewares/Third_Party/FreeRTOS/Source/CMSIS_RTOS/cmsis_os.c ****   
1562:Middlewares/Third_Party/FreeRTOS/Source/CMSIS_RTOS/cmsis_os.c ****   if (queue_id == NULL) {
 3463              		.loc 1 1562 3 is_stmt 1 view .LVU863
 3464              		.loc 1 1562 6 is_stmt 0 view .LVU864
 3465 0008 E9B1     		cbz	r1, .L278
 3466 000a 0846     		mov	r0, r1
 3467              	.LVL275:
 3468              		.loc 1 1562 6 view .LVU865
 3469 000c 1446     		mov	r4, r2
1563:Middlewares/Third_Party/FreeRTOS/Source/CMSIS_RTOS/cmsis_os.c ****     event.status = osErrorParameter;
1564:Middlewares/Third_Party/FreeRTOS/Source/CMSIS_RTOS/cmsis_os.c ****     return event;
1565:Middlewares/Third_Party/FreeRTOS/Source/CMSIS_RTOS/cmsis_os.c ****   }
1566:Middlewares/Third_Party/FreeRTOS/Source/CMSIS_RTOS/cmsis_os.c ****   
1567:Middlewares/Third_Party/FreeRTOS/Source/CMSIS_RTOS/cmsis_os.c ****   ticks = 0;
 3470              		.loc 1 1567 3 is_stmt 1 view .LVU866
 3471              	.LVL276:
1568:Middlewares/Third_Party/FreeRTOS/Source/CMSIS_RTOS/cmsis_os.c ****   if (millisec == osWaitForever) {
 3472              		.loc 1 1568 3 view .LVU867
 3473              		.loc 1 1568 6 is_stmt 0 view .LVU868
 3474 000e B2F1FF3F 		cmp	r2, #-1
 3475 0012 07D0     		beq	.L271
1569:Middlewares/Third_Party/FreeRTOS/Source/CMSIS_RTOS/cmsis_os.c ****     ticks = portMAX_DELAY;
1570:Middlewares/Third_Party/FreeRTOS/Source/CMSIS_RTOS/cmsis_os.c ****   }
1571:Middlewares/Third_Party/FreeRTOS/Source/CMSIS_RTOS/cmsis_os.c ****   else if (millisec != 0) {
 3476              		.loc 1 1571 8 is_stmt 1 view .LVU869
 3477              		.loc 1 1571 11 is_stmt 0 view .LVU870
 3478 0014 32B1     		cbz	r2, .L271
1572:Middlewares/Third_Party/FreeRTOS/Source/CMSIS_RTOS/cmsis_os.c ****     ticks = millisec / portTICK_PERIOD_MS;
 3479              		.loc 1 1572 5 is_stmt 1 view .LVU871
 3480              		.loc 1 1572 11 is_stmt 0 view .LVU872
 3481 0016 124B     		ldr	r3, .L280
 3482 0018 A3FB0423 		umull	r2, r3, r3, r4
 3483              	.LVL277:
 3484              		.loc 1 1572 11 view .LVU873
 3485 001c DB08     		lsrs	r3, r3, #3
 3486              	.LVL278:
1573:Middlewares/Third_Party/FreeRTOS/Source/CMSIS_RTOS/cmsis_os.c ****     if (ticks == 0) {
 3487              		.loc 1 1573 5 is_stmt 1 view .LVU874
 3488              		.loc 1 1573 8 is_stmt 0 view .LVU875
 3489 001e 092C     		cmp	r4, #9
 3490 0020 19D9     		bls	.L275
1572:Middlewares/Third_Party/FreeRTOS/Source/CMSIS_RTOS/cmsis_os.c ****     ticks = millisec / portTICK_PERIOD_MS;
 3491              		.loc 1 1572 11 view .LVU876
 3492 0022 1C46     		mov	r4, r3
 3493              	.LVL279:
 3494              	.L271:
1574:Middlewares/Third_Party/FreeRTOS/Source/CMSIS_RTOS/cmsis_os.c ****       ticks = 1;
1575:Middlewares/Third_Party/FreeRTOS/Source/CMSIS_RTOS/cmsis_os.c ****     }
1576:Middlewares/Third_Party/FreeRTOS/Source/CMSIS_RTOS/cmsis_os.c ****   }
1577:Middlewares/Third_Party/FreeRTOS/Source/CMSIS_RTOS/cmsis_os.c ****   
1578:Middlewares/Third_Party/FreeRTOS/Source/CMSIS_RTOS/cmsis_os.c ****   if (xQueuePeek(queue_id, &event.value.v, ticks) == pdTRUE) 
 3495              		.loc 1 1578 3 is_stmt 1 view .LVU877
 3496              		.loc 1 1578 7 is_stmt 0 view .LVU878
 3497 0024 2246     		mov	r2, r4
 3498 0026 02A9     		add	r1, sp, #8
ARM GAS  /tmp/ccYrIPsY.s 			page 99


 3499              	.LVL280:
 3500              		.loc 1 1578 7 view .LVU879
 3501 0028 FFF7FEFF 		bl	xQueuePeek
 3502              	.LVL281:
 3503              		.loc 1 1578 6 view .LVU880
 3504 002c 0128     		cmp	r0, #1
 3505 002e 14D0     		beq	.L279
1579:Middlewares/Third_Party/FreeRTOS/Source/CMSIS_RTOS/cmsis_os.c ****   {
1580:Middlewares/Third_Party/FreeRTOS/Source/CMSIS_RTOS/cmsis_os.c ****     /* We have mail */
1581:Middlewares/Third_Party/FreeRTOS/Source/CMSIS_RTOS/cmsis_os.c ****     event.status = osEventMessage;
1582:Middlewares/Third_Party/FreeRTOS/Source/CMSIS_RTOS/cmsis_os.c ****   }
1583:Middlewares/Third_Party/FreeRTOS/Source/CMSIS_RTOS/cmsis_os.c ****   else 
1584:Middlewares/Third_Party/FreeRTOS/Source/CMSIS_RTOS/cmsis_os.c ****   {
1585:Middlewares/Third_Party/FreeRTOS/Source/CMSIS_RTOS/cmsis_os.c ****     event.status = (ticks == 0) ? osOK : osEventTimeout;
 3506              		.loc 1 1585 5 is_stmt 1 view .LVU881
 3507              		.loc 1 1585 40 is_stmt 0 view .LVU882
 3508 0030 04B1     		cbz	r4, .L274
 3509 0032 4024     		movs	r4, #64
 3510              	.LVL282:
 3511              	.L274:
 3512              		.loc 1 1585 18 discriminator 4 view .LVU883
 3513 0034 0194     		str	r4, [sp, #4]
 3514              	.L273:
1586:Middlewares/Third_Party/FreeRTOS/Source/CMSIS_RTOS/cmsis_os.c ****   }
1587:Middlewares/Third_Party/FreeRTOS/Source/CMSIS_RTOS/cmsis_os.c ****   
1588:Middlewares/Third_Party/FreeRTOS/Source/CMSIS_RTOS/cmsis_os.c ****   return event;
 3515              		.loc 1 1588 3 is_stmt 1 view .LVU884
 3516              		.loc 1 1588 10 is_stmt 0 view .LVU885
 3517 0036 04AB     		add	r3, sp, #16
 3518 0038 13E90700 		ldmdb	r3, {r0, r1, r2}
 3519 003c 85E80700 		stm	r5, {r0, r1, r2}
 3520              	.L268:
1589:Middlewares/Third_Party/FreeRTOS/Source/CMSIS_RTOS/cmsis_os.c **** }
 3521              		.loc 1 1589 1 view .LVU886
 3522 0040 2846     		mov	r0, r5
 3523 0042 05B0     		add	sp, sp, #20
 3524              	.LCFI80:
 3525              		.cfi_remember_state
 3526              		.cfi_def_cfa_offset 12
 3527              		@ sp needed
 3528 0044 30BD     		pop	{r4, r5, pc}
 3529              	.LVL283:
 3530              	.L278:
 3531              	.LCFI81:
 3532              		.cfi_restore_state
1563:Middlewares/Third_Party/FreeRTOS/Source/CMSIS_RTOS/cmsis_os.c ****     return event;
 3533              		.loc 1 1563 5 is_stmt 1 view .LVU887
1563:Middlewares/Third_Party/FreeRTOS/Source/CMSIS_RTOS/cmsis_os.c ****     return event;
 3534              		.loc 1 1563 18 is_stmt 0 view .LVU888
 3535 0046 8023     		movs	r3, #128
 3536 0048 0193     		str	r3, [sp, #4]
1564:Middlewares/Third_Party/FreeRTOS/Source/CMSIS_RTOS/cmsis_os.c ****   }
 3537              		.loc 1 1564 5 is_stmt 1 view .LVU889
1564:Middlewares/Third_Party/FreeRTOS/Source/CMSIS_RTOS/cmsis_os.c ****   }
 3538              		.loc 1 1564 12 is_stmt 0 view .LVU890
 3539 004a 04AB     		add	r3, sp, #16
 3540 004c 13E90700 		ldmdb	r3, {r0, r1, r2}
ARM GAS  /tmp/ccYrIPsY.s 			page 100


 3541              	.LVL284:
1564:Middlewares/Third_Party/FreeRTOS/Source/CMSIS_RTOS/cmsis_os.c ****   }
 3542              		.loc 1 1564 12 view .LVU891
 3543 0050 85E80700 		stm	r5, {r0, r1, r2}
 3544 0054 F4E7     		b	.L268
 3545              	.LVL285:
 3546              	.L275:
1574:Middlewares/Third_Party/FreeRTOS/Source/CMSIS_RTOS/cmsis_os.c ****     }
 3547              		.loc 1 1574 13 view .LVU892
 3548 0056 0124     		movs	r4, #1
 3549              	.LVL286:
1574:Middlewares/Third_Party/FreeRTOS/Source/CMSIS_RTOS/cmsis_os.c ****     }
 3550              		.loc 1 1574 13 view .LVU893
 3551 0058 E4E7     		b	.L271
 3552              	.LVL287:
 3553              	.L279:
1581:Middlewares/Third_Party/FreeRTOS/Source/CMSIS_RTOS/cmsis_os.c ****   }
 3554              		.loc 1 1581 5 is_stmt 1 view .LVU894
1581:Middlewares/Third_Party/FreeRTOS/Source/CMSIS_RTOS/cmsis_os.c ****   }
 3555              		.loc 1 1581 18 is_stmt 0 view .LVU895
 3556 005a 1023     		movs	r3, #16
 3557 005c 0193     		str	r3, [sp, #4]
 3558 005e EAE7     		b	.L273
 3559              	.L281:
 3560              		.align	2
 3561              	.L280:
 3562 0060 CDCCCCCC 		.word	-858993459
 3563              		.cfi_endproc
 3564              	.LFE155:
 3566              		.section	.text.osMessageWaiting,"ax",%progbits
 3567              		.align	1
 3568              		.global	osMessageWaiting
 3569              		.syntax unified
 3570              		.thumb
 3571              		.thumb_func
 3572              		.fpu fpv4-sp-d16
 3574              	osMessageWaiting:
 3575              	.LVL288:
 3576              	.LFB156:
1590:Middlewares/Third_Party/FreeRTOS/Source/CMSIS_RTOS/cmsis_os.c **** 
1591:Middlewares/Third_Party/FreeRTOS/Source/CMSIS_RTOS/cmsis_os.c **** /**
1592:Middlewares/Third_Party/FreeRTOS/Source/CMSIS_RTOS/cmsis_os.c **** * @brief  Get the number of messaged stored in a queue.
1593:Middlewares/Third_Party/FreeRTOS/Source/CMSIS_RTOS/cmsis_os.c **** * @param  queue_id  message queue ID obtained with \ref osMessageCreate.
1594:Middlewares/Third_Party/FreeRTOS/Source/CMSIS_RTOS/cmsis_os.c **** * @retval number of messages stored in a queue.
1595:Middlewares/Third_Party/FreeRTOS/Source/CMSIS_RTOS/cmsis_os.c **** */
1596:Middlewares/Third_Party/FreeRTOS/Source/CMSIS_RTOS/cmsis_os.c **** uint32_t osMessageWaiting(osMessageQId queue_id)
1597:Middlewares/Third_Party/FreeRTOS/Source/CMSIS_RTOS/cmsis_os.c **** {
 3577              		.loc 1 1597 1 is_stmt 1 view -0
 3578              		.cfi_startproc
 3579              		@ args = 0, pretend = 0, frame = 0
 3580              		@ frame_needed = 0, uses_anonymous_args = 0
 3581              		.loc 1 1597 1 is_stmt 0 view .LVU897
 3582 0000 10B5     		push	{r4, lr}
 3583              	.LCFI82:
 3584              		.cfi_def_cfa_offset 8
 3585              		.cfi_offset 4, -8
 3586              		.cfi_offset 14, -4
ARM GAS  /tmp/ccYrIPsY.s 			page 101


 3587 0002 0446     		mov	r4, r0
1598:Middlewares/Third_Party/FreeRTOS/Source/CMSIS_RTOS/cmsis_os.c ****   if (inHandlerMode()) {
 3588              		.loc 1 1598 3 is_stmt 1 view .LVU898
 3589              		.loc 1 1598 7 is_stmt 0 view .LVU899
 3590 0004 FFF7FEFF 		bl	inHandlerMode
 3591              	.LVL289:
 3592              		.loc 1 1598 6 view .LVU900
 3593 0008 18B1     		cbz	r0, .L283
1599:Middlewares/Third_Party/FreeRTOS/Source/CMSIS_RTOS/cmsis_os.c ****     return uxQueueMessagesWaitingFromISR(queue_id);
 3594              		.loc 1 1599 5 is_stmt 1 view .LVU901
 3595              		.loc 1 1599 12 is_stmt 0 view .LVU902
 3596 000a 2046     		mov	r0, r4
 3597 000c FFF7FEFF 		bl	uxQueueMessagesWaitingFromISR
 3598              	.LVL290:
 3599              	.L282:
1600:Middlewares/Third_Party/FreeRTOS/Source/CMSIS_RTOS/cmsis_os.c ****   }
1601:Middlewares/Third_Party/FreeRTOS/Source/CMSIS_RTOS/cmsis_os.c ****   else
1602:Middlewares/Third_Party/FreeRTOS/Source/CMSIS_RTOS/cmsis_os.c ****   {
1603:Middlewares/Third_Party/FreeRTOS/Source/CMSIS_RTOS/cmsis_os.c ****     return uxQueueMessagesWaiting(queue_id);
1604:Middlewares/Third_Party/FreeRTOS/Source/CMSIS_RTOS/cmsis_os.c ****   }
1605:Middlewares/Third_Party/FreeRTOS/Source/CMSIS_RTOS/cmsis_os.c **** }
 3600              		.loc 1 1605 1 view .LVU903
 3601 0010 10BD     		pop	{r4, pc}
 3602              	.LVL291:
 3603              	.L283:
1603:Middlewares/Third_Party/FreeRTOS/Source/CMSIS_RTOS/cmsis_os.c ****   }
 3604              		.loc 1 1603 5 is_stmt 1 view .LVU904
1603:Middlewares/Third_Party/FreeRTOS/Source/CMSIS_RTOS/cmsis_os.c ****   }
 3605              		.loc 1 1603 12 is_stmt 0 view .LVU905
 3606 0012 2046     		mov	r0, r4
 3607 0014 FFF7FEFF 		bl	uxQueueMessagesWaiting
 3608              	.LVL292:
 3609 0018 FAE7     		b	.L282
 3610              		.cfi_endproc
 3611              	.LFE156:
 3613              		.section	.text.osMessageAvailableSpace,"ax",%progbits
 3614              		.align	1
 3615              		.global	osMessageAvailableSpace
 3616              		.syntax unified
 3617              		.thumb
 3618              		.thumb_func
 3619              		.fpu fpv4-sp-d16
 3621              	osMessageAvailableSpace:
 3622              	.LVL293:
 3623              	.LFB157:
1606:Middlewares/Third_Party/FreeRTOS/Source/CMSIS_RTOS/cmsis_os.c **** 
1607:Middlewares/Third_Party/FreeRTOS/Source/CMSIS_RTOS/cmsis_os.c **** /**
1608:Middlewares/Third_Party/FreeRTOS/Source/CMSIS_RTOS/cmsis_os.c **** * @brief  Get the available space in a message queue.
1609:Middlewares/Third_Party/FreeRTOS/Source/CMSIS_RTOS/cmsis_os.c **** * @param  queue_id  message queue ID obtained with \ref osMessageCreate.
1610:Middlewares/Third_Party/FreeRTOS/Source/CMSIS_RTOS/cmsis_os.c **** * @retval available space in a message queue.
1611:Middlewares/Third_Party/FreeRTOS/Source/CMSIS_RTOS/cmsis_os.c **** */
1612:Middlewares/Third_Party/FreeRTOS/Source/CMSIS_RTOS/cmsis_os.c **** uint32_t osMessageAvailableSpace(osMessageQId queue_id)  
1613:Middlewares/Third_Party/FreeRTOS/Source/CMSIS_RTOS/cmsis_os.c **** {
 3624              		.loc 1 1613 1 is_stmt 1 view -0
 3625              		.cfi_startproc
 3626              		@ args = 0, pretend = 0, frame = 0
 3627              		@ frame_needed = 0, uses_anonymous_args = 0
ARM GAS  /tmp/ccYrIPsY.s 			page 102


 3628              		.loc 1 1613 1 is_stmt 0 view .LVU907
 3629 0000 08B5     		push	{r3, lr}
 3630              	.LCFI83:
 3631              		.cfi_def_cfa_offset 8
 3632              		.cfi_offset 3, -8
 3633              		.cfi_offset 14, -4
1614:Middlewares/Third_Party/FreeRTOS/Source/CMSIS_RTOS/cmsis_os.c ****   return uxQueueSpacesAvailable(queue_id);
 3634              		.loc 1 1614 3 is_stmt 1 view .LVU908
 3635              		.loc 1 1614 10 is_stmt 0 view .LVU909
 3636 0002 FFF7FEFF 		bl	uxQueueSpacesAvailable
 3637              	.LVL294:
1615:Middlewares/Third_Party/FreeRTOS/Source/CMSIS_RTOS/cmsis_os.c **** }
 3638              		.loc 1 1615 1 view .LVU910
 3639 0006 08BD     		pop	{r3, pc}
 3640              		.cfi_endproc
 3641              	.LFE157:
 3643              		.section	.text.osMessageDelete,"ax",%progbits
 3644              		.align	1
 3645              		.global	osMessageDelete
 3646              		.syntax unified
 3647              		.thumb
 3648              		.thumb_func
 3649              		.fpu fpv4-sp-d16
 3651              	osMessageDelete:
 3652              	.LVL295:
 3653              	.LFB158:
1616:Middlewares/Third_Party/FreeRTOS/Source/CMSIS_RTOS/cmsis_os.c **** 
1617:Middlewares/Third_Party/FreeRTOS/Source/CMSIS_RTOS/cmsis_os.c **** /**
1618:Middlewares/Third_Party/FreeRTOS/Source/CMSIS_RTOS/cmsis_os.c **** * @brief Delete a Message Queue
1619:Middlewares/Third_Party/FreeRTOS/Source/CMSIS_RTOS/cmsis_os.c **** * @param  queue_id  message queue ID obtained with \ref osMessageCreate.
1620:Middlewares/Third_Party/FreeRTOS/Source/CMSIS_RTOS/cmsis_os.c **** * @retval  status code that indicates the execution status of the function.
1621:Middlewares/Third_Party/FreeRTOS/Source/CMSIS_RTOS/cmsis_os.c **** */
1622:Middlewares/Third_Party/FreeRTOS/Source/CMSIS_RTOS/cmsis_os.c **** osStatus osMessageDelete (osMessageQId queue_id)
1623:Middlewares/Third_Party/FreeRTOS/Source/CMSIS_RTOS/cmsis_os.c **** {
 3654              		.loc 1 1623 1 is_stmt 1 view -0
 3655              		.cfi_startproc
 3656              		@ args = 0, pretend = 0, frame = 0
 3657              		@ frame_needed = 0, uses_anonymous_args = 0
 3658              		.loc 1 1623 1 is_stmt 0 view .LVU912
 3659 0000 10B5     		push	{r4, lr}
 3660              	.LCFI84:
 3661              		.cfi_def_cfa_offset 8
 3662              		.cfi_offset 4, -8
 3663              		.cfi_offset 14, -4
 3664 0002 0446     		mov	r4, r0
1624:Middlewares/Third_Party/FreeRTOS/Source/CMSIS_RTOS/cmsis_os.c ****   if (inHandlerMode()) {
 3665              		.loc 1 1624 3 is_stmt 1 view .LVU913
 3666              		.loc 1 1624 7 is_stmt 0 view .LVU914
 3667 0004 FFF7FEFF 		bl	inHandlerMode
 3668              	.LVL296:
 3669              		.loc 1 1624 6 view .LVU915
 3670 0008 20B9     		cbnz	r0, .L290
1625:Middlewares/Third_Party/FreeRTOS/Source/CMSIS_RTOS/cmsis_os.c ****     return osErrorISR;
1626:Middlewares/Third_Party/FreeRTOS/Source/CMSIS_RTOS/cmsis_os.c ****   }
1627:Middlewares/Third_Party/FreeRTOS/Source/CMSIS_RTOS/cmsis_os.c **** 
1628:Middlewares/Third_Party/FreeRTOS/Source/CMSIS_RTOS/cmsis_os.c ****   vQueueDelete(queue_id);
 3671              		.loc 1 1628 3 is_stmt 1 view .LVU916
ARM GAS  /tmp/ccYrIPsY.s 			page 103


 3672 000a 2046     		mov	r0, r4
 3673 000c FFF7FEFF 		bl	vQueueDelete
 3674              	.LVL297:
1629:Middlewares/Third_Party/FreeRTOS/Source/CMSIS_RTOS/cmsis_os.c **** 
1630:Middlewares/Third_Party/FreeRTOS/Source/CMSIS_RTOS/cmsis_os.c ****   return osOK; 
 3675              		.loc 1 1630 3 view .LVU917
 3676              		.loc 1 1630 10 is_stmt 0 view .LVU918
 3677 0010 0020     		movs	r0, #0
 3678              	.L288:
1631:Middlewares/Third_Party/FreeRTOS/Source/CMSIS_RTOS/cmsis_os.c **** }
 3679              		.loc 1 1631 1 view .LVU919
 3680 0012 10BD     		pop	{r4, pc}
 3681              	.LVL298:
 3682              	.L290:
1625:Middlewares/Third_Party/FreeRTOS/Source/CMSIS_RTOS/cmsis_os.c ****     return osErrorISR;
 3683              		.loc 1 1625 12 view .LVU920
 3684 0014 8220     		movs	r0, #130
 3685 0016 FCE7     		b	.L288
 3686              		.cfi_endproc
 3687              	.LFE158:
 3689              		.section	.text.osRecursiveMutexCreate,"ax",%progbits
 3690              		.align	1
 3691              		.global	osRecursiveMutexCreate
 3692              		.syntax unified
 3693              		.thumb
 3694              		.thumb_func
 3695              		.fpu fpv4-sp-d16
 3697              	osRecursiveMutexCreate:
 3698              	.LVL299:
 3699              	.LFB159:
1632:Middlewares/Third_Party/FreeRTOS/Source/CMSIS_RTOS/cmsis_os.c **** 
1633:Middlewares/Third_Party/FreeRTOS/Source/CMSIS_RTOS/cmsis_os.c **** /**
1634:Middlewares/Third_Party/FreeRTOS/Source/CMSIS_RTOS/cmsis_os.c **** * @brief  Create and Initialize a Recursive Mutex
1635:Middlewares/Third_Party/FreeRTOS/Source/CMSIS_RTOS/cmsis_os.c **** * @param  mutex_def     mutex definition referenced with \ref osMutex.
1636:Middlewares/Third_Party/FreeRTOS/Source/CMSIS_RTOS/cmsis_os.c **** * @retval  mutex ID for reference by other functions or NULL in case of error..
1637:Middlewares/Third_Party/FreeRTOS/Source/CMSIS_RTOS/cmsis_os.c **** */
1638:Middlewares/Third_Party/FreeRTOS/Source/CMSIS_RTOS/cmsis_os.c **** osMutexId osRecursiveMutexCreate (const osMutexDef_t *mutex_def)
1639:Middlewares/Third_Party/FreeRTOS/Source/CMSIS_RTOS/cmsis_os.c **** {
 3700              		.loc 1 1639 1 is_stmt 1 view -0
 3701              		.cfi_startproc
 3702              		@ args = 0, pretend = 0, frame = 0
 3703              		@ frame_needed = 0, uses_anonymous_args = 0
 3704              		@ link register save eliminated.
1640:Middlewares/Third_Party/FreeRTOS/Source/CMSIS_RTOS/cmsis_os.c **** #if (configUSE_RECURSIVE_MUTEXES == 1)
1641:Middlewares/Third_Party/FreeRTOS/Source/CMSIS_RTOS/cmsis_os.c **** #if( configSUPPORT_STATIC_ALLOCATION == 1 ) && ( configSUPPORT_DYNAMIC_ALLOCATION == 1 )
1642:Middlewares/Third_Party/FreeRTOS/Source/CMSIS_RTOS/cmsis_os.c **** 
1643:Middlewares/Third_Party/FreeRTOS/Source/CMSIS_RTOS/cmsis_os.c ****   if (mutex_def->controlblock != NULL){
1644:Middlewares/Third_Party/FreeRTOS/Source/CMSIS_RTOS/cmsis_os.c ****     return xSemaphoreCreateRecursiveMutexStatic( mutex_def->controlblock );
1645:Middlewares/Third_Party/FreeRTOS/Source/CMSIS_RTOS/cmsis_os.c ****   }
1646:Middlewares/Third_Party/FreeRTOS/Source/CMSIS_RTOS/cmsis_os.c ****   else {
1647:Middlewares/Third_Party/FreeRTOS/Source/CMSIS_RTOS/cmsis_os.c ****     return xSemaphoreCreateRecursiveMutex();
1648:Middlewares/Third_Party/FreeRTOS/Source/CMSIS_RTOS/cmsis_os.c ****   }
1649:Middlewares/Third_Party/FreeRTOS/Source/CMSIS_RTOS/cmsis_os.c **** #elif ( configSUPPORT_STATIC_ALLOCATION == 1 )
1650:Middlewares/Third_Party/FreeRTOS/Source/CMSIS_RTOS/cmsis_os.c ****   return xSemaphoreCreateRecursiveMutexStatic( mutex_def->controlblock );
1651:Middlewares/Third_Party/FreeRTOS/Source/CMSIS_RTOS/cmsis_os.c **** #else 
1652:Middlewares/Third_Party/FreeRTOS/Source/CMSIS_RTOS/cmsis_os.c ****   return xSemaphoreCreateRecursiveMutex();
1653:Middlewares/Third_Party/FreeRTOS/Source/CMSIS_RTOS/cmsis_os.c **** #endif
ARM GAS  /tmp/ccYrIPsY.s 			page 104


1654:Middlewares/Third_Party/FreeRTOS/Source/CMSIS_RTOS/cmsis_os.c **** #else
1655:Middlewares/Third_Party/FreeRTOS/Source/CMSIS_RTOS/cmsis_os.c ****   return NULL;
 3705              		.loc 1 1655 3 view .LVU922
1656:Middlewares/Third_Party/FreeRTOS/Source/CMSIS_RTOS/cmsis_os.c **** #endif	
1657:Middlewares/Third_Party/FreeRTOS/Source/CMSIS_RTOS/cmsis_os.c **** }
 3706              		.loc 1 1657 1 is_stmt 0 view .LVU923
 3707 0000 0020     		movs	r0, #0
 3708              	.LVL300:
 3709              		.loc 1 1657 1 view .LVU924
 3710 0002 7047     		bx	lr
 3711              		.cfi_endproc
 3712              	.LFE159:
 3714              		.section	.text.osRecursiveMutexRelease,"ax",%progbits
 3715              		.align	1
 3716              		.global	osRecursiveMutexRelease
 3717              		.syntax unified
 3718              		.thumb
 3719              		.thumb_func
 3720              		.fpu fpv4-sp-d16
 3722              	osRecursiveMutexRelease:
 3723              	.LVL301:
 3724              	.LFB160:
1658:Middlewares/Third_Party/FreeRTOS/Source/CMSIS_RTOS/cmsis_os.c **** 
1659:Middlewares/Third_Party/FreeRTOS/Source/CMSIS_RTOS/cmsis_os.c **** /**
1660:Middlewares/Third_Party/FreeRTOS/Source/CMSIS_RTOS/cmsis_os.c **** * @brief  Release a Recursive Mutex
1661:Middlewares/Third_Party/FreeRTOS/Source/CMSIS_RTOS/cmsis_os.c **** * @param   mutex_id      mutex ID obtained by \ref osRecursiveMutexCreate.
1662:Middlewares/Third_Party/FreeRTOS/Source/CMSIS_RTOS/cmsis_os.c **** * @retval  status code that indicates the execution status of the function.
1663:Middlewares/Third_Party/FreeRTOS/Source/CMSIS_RTOS/cmsis_os.c **** */
1664:Middlewares/Third_Party/FreeRTOS/Source/CMSIS_RTOS/cmsis_os.c **** osStatus osRecursiveMutexRelease (osMutexId mutex_id)
1665:Middlewares/Third_Party/FreeRTOS/Source/CMSIS_RTOS/cmsis_os.c **** {
 3725              		.loc 1 1665 1 is_stmt 1 view -0
 3726              		.cfi_startproc
 3727              		@ args = 0, pretend = 0, frame = 0
 3728              		@ frame_needed = 0, uses_anonymous_args = 0
 3729              		@ link register save eliminated.
1666:Middlewares/Third_Party/FreeRTOS/Source/CMSIS_RTOS/cmsis_os.c **** #if (configUSE_RECURSIVE_MUTEXES == 1)
1667:Middlewares/Third_Party/FreeRTOS/Source/CMSIS_RTOS/cmsis_os.c ****   osStatus result = osOK;
1668:Middlewares/Third_Party/FreeRTOS/Source/CMSIS_RTOS/cmsis_os.c ****  
1669:Middlewares/Third_Party/FreeRTOS/Source/CMSIS_RTOS/cmsis_os.c ****   if (xSemaphoreGiveRecursive(mutex_id) != pdTRUE) 
1670:Middlewares/Third_Party/FreeRTOS/Source/CMSIS_RTOS/cmsis_os.c ****   {
1671:Middlewares/Third_Party/FreeRTOS/Source/CMSIS_RTOS/cmsis_os.c ****     result = osErrorOS;
1672:Middlewares/Third_Party/FreeRTOS/Source/CMSIS_RTOS/cmsis_os.c ****   }
1673:Middlewares/Third_Party/FreeRTOS/Source/CMSIS_RTOS/cmsis_os.c ****   return result;
1674:Middlewares/Third_Party/FreeRTOS/Source/CMSIS_RTOS/cmsis_os.c **** #else
1675:Middlewares/Third_Party/FreeRTOS/Source/CMSIS_RTOS/cmsis_os.c **** 	return osErrorResource;
 3730              		.loc 1 1675 2 view .LVU926
1676:Middlewares/Third_Party/FreeRTOS/Source/CMSIS_RTOS/cmsis_os.c **** #endif
1677:Middlewares/Third_Party/FreeRTOS/Source/CMSIS_RTOS/cmsis_os.c **** }
 3731              		.loc 1 1677 1 is_stmt 0 view .LVU927
 3732 0000 8120     		movs	r0, #129
 3733              	.LVL302:
 3734              		.loc 1 1677 1 view .LVU928
 3735 0002 7047     		bx	lr
 3736              		.cfi_endproc
 3737              	.LFE160:
 3739              		.section	.text.osRecursiveMutexWait,"ax",%progbits
 3740              		.align	1
ARM GAS  /tmp/ccYrIPsY.s 			page 105


 3741              		.global	osRecursiveMutexWait
 3742              		.syntax unified
 3743              		.thumb
 3744              		.thumb_func
 3745              		.fpu fpv4-sp-d16
 3747              	osRecursiveMutexWait:
 3748              	.LVL303:
 3749              	.LFB161:
1678:Middlewares/Third_Party/FreeRTOS/Source/CMSIS_RTOS/cmsis_os.c **** 
1679:Middlewares/Third_Party/FreeRTOS/Source/CMSIS_RTOS/cmsis_os.c **** /**
1680:Middlewares/Third_Party/FreeRTOS/Source/CMSIS_RTOS/cmsis_os.c **** * @brief  Release a Recursive Mutex
1681:Middlewares/Third_Party/FreeRTOS/Source/CMSIS_RTOS/cmsis_os.c **** * @param   mutex_id    mutex ID obtained by \ref osRecursiveMutexCreate.
1682:Middlewares/Third_Party/FreeRTOS/Source/CMSIS_RTOS/cmsis_os.c **** * @param millisec      timeout value or 0 in case of no time-out.
1683:Middlewares/Third_Party/FreeRTOS/Source/CMSIS_RTOS/cmsis_os.c **** * @retval  status code that indicates the execution status of the function.
1684:Middlewares/Third_Party/FreeRTOS/Source/CMSIS_RTOS/cmsis_os.c **** */
1685:Middlewares/Third_Party/FreeRTOS/Source/CMSIS_RTOS/cmsis_os.c **** osStatus osRecursiveMutexWait (osMutexId mutex_id, uint32_t millisec)
1686:Middlewares/Third_Party/FreeRTOS/Source/CMSIS_RTOS/cmsis_os.c **** {
 3750              		.loc 1 1686 1 is_stmt 1 view -0
 3751              		.cfi_startproc
 3752              		@ args = 0, pretend = 0, frame = 0
 3753              		@ frame_needed = 0, uses_anonymous_args = 0
 3754              		@ link register save eliminated.
1687:Middlewares/Third_Party/FreeRTOS/Source/CMSIS_RTOS/cmsis_os.c **** #if (configUSE_RECURSIVE_MUTEXES == 1)
1688:Middlewares/Third_Party/FreeRTOS/Source/CMSIS_RTOS/cmsis_os.c ****   TickType_t ticks;
1689:Middlewares/Third_Party/FreeRTOS/Source/CMSIS_RTOS/cmsis_os.c ****   
1690:Middlewares/Third_Party/FreeRTOS/Source/CMSIS_RTOS/cmsis_os.c ****   if (mutex_id == NULL)
1691:Middlewares/Third_Party/FreeRTOS/Source/CMSIS_RTOS/cmsis_os.c ****   {
1692:Middlewares/Third_Party/FreeRTOS/Source/CMSIS_RTOS/cmsis_os.c ****     return osErrorParameter;
1693:Middlewares/Third_Party/FreeRTOS/Source/CMSIS_RTOS/cmsis_os.c ****   }
1694:Middlewares/Third_Party/FreeRTOS/Source/CMSIS_RTOS/cmsis_os.c ****   
1695:Middlewares/Third_Party/FreeRTOS/Source/CMSIS_RTOS/cmsis_os.c ****   ticks = 0;
1696:Middlewares/Third_Party/FreeRTOS/Source/CMSIS_RTOS/cmsis_os.c ****   if (millisec == osWaitForever) 
1697:Middlewares/Third_Party/FreeRTOS/Source/CMSIS_RTOS/cmsis_os.c ****   {
1698:Middlewares/Third_Party/FreeRTOS/Source/CMSIS_RTOS/cmsis_os.c ****     ticks = portMAX_DELAY;
1699:Middlewares/Third_Party/FreeRTOS/Source/CMSIS_RTOS/cmsis_os.c ****   }
1700:Middlewares/Third_Party/FreeRTOS/Source/CMSIS_RTOS/cmsis_os.c ****   else if (millisec != 0) 
1701:Middlewares/Third_Party/FreeRTOS/Source/CMSIS_RTOS/cmsis_os.c ****   {
1702:Middlewares/Third_Party/FreeRTOS/Source/CMSIS_RTOS/cmsis_os.c ****     ticks = millisec / portTICK_PERIOD_MS;
1703:Middlewares/Third_Party/FreeRTOS/Source/CMSIS_RTOS/cmsis_os.c ****     if (ticks == 0) 
1704:Middlewares/Third_Party/FreeRTOS/Source/CMSIS_RTOS/cmsis_os.c ****     {
1705:Middlewares/Third_Party/FreeRTOS/Source/CMSIS_RTOS/cmsis_os.c ****       ticks = 1;
1706:Middlewares/Third_Party/FreeRTOS/Source/CMSIS_RTOS/cmsis_os.c ****     }
1707:Middlewares/Third_Party/FreeRTOS/Source/CMSIS_RTOS/cmsis_os.c ****   }
1708:Middlewares/Third_Party/FreeRTOS/Source/CMSIS_RTOS/cmsis_os.c ****   
1709:Middlewares/Third_Party/FreeRTOS/Source/CMSIS_RTOS/cmsis_os.c ****   if (xSemaphoreTakeRecursive(mutex_id, ticks) != pdTRUE) 
1710:Middlewares/Third_Party/FreeRTOS/Source/CMSIS_RTOS/cmsis_os.c ****   {
1711:Middlewares/Third_Party/FreeRTOS/Source/CMSIS_RTOS/cmsis_os.c ****     return osErrorOS;
1712:Middlewares/Third_Party/FreeRTOS/Source/CMSIS_RTOS/cmsis_os.c ****   }
1713:Middlewares/Third_Party/FreeRTOS/Source/CMSIS_RTOS/cmsis_os.c ****   return osOK;
1714:Middlewares/Third_Party/FreeRTOS/Source/CMSIS_RTOS/cmsis_os.c **** #else
1715:Middlewares/Third_Party/FreeRTOS/Source/CMSIS_RTOS/cmsis_os.c **** 	return osErrorResource;
 3755              		.loc 1 1715 2 view .LVU930
1716:Middlewares/Third_Party/FreeRTOS/Source/CMSIS_RTOS/cmsis_os.c **** #endif
1717:Middlewares/Third_Party/FreeRTOS/Source/CMSIS_RTOS/cmsis_os.c **** }
 3756              		.loc 1 1717 1 is_stmt 0 view .LVU931
 3757 0000 8120     		movs	r0, #129
 3758              	.LVL304:
ARM GAS  /tmp/ccYrIPsY.s 			page 106


 3759              		.loc 1 1717 1 view .LVU932
 3760 0002 7047     		bx	lr
 3761              		.cfi_endproc
 3762              	.LFE161:
 3764              		.section	.text.osSemaphoreGetCount,"ax",%progbits
 3765              		.align	1
 3766              		.global	osSemaphoreGetCount
 3767              		.syntax unified
 3768              		.thumb
 3769              		.thumb_func
 3770              		.fpu fpv4-sp-d16
 3772              	osSemaphoreGetCount:
 3773              	.LVL305:
 3774              	.LFB162:
1718:Middlewares/Third_Party/FreeRTOS/Source/CMSIS_RTOS/cmsis_os.c **** 
1719:Middlewares/Third_Party/FreeRTOS/Source/CMSIS_RTOS/cmsis_os.c **** /**
1720:Middlewares/Third_Party/FreeRTOS/Source/CMSIS_RTOS/cmsis_os.c **** * @brief  Returns the current count value of a counting semaphore
1721:Middlewares/Third_Party/FreeRTOS/Source/CMSIS_RTOS/cmsis_os.c **** * @param  semaphore_id  semaphore_id ID obtained by \ref osSemaphoreCreate.
1722:Middlewares/Third_Party/FreeRTOS/Source/CMSIS_RTOS/cmsis_os.c **** * @retval  count value
1723:Middlewares/Third_Party/FreeRTOS/Source/CMSIS_RTOS/cmsis_os.c **** */
1724:Middlewares/Third_Party/FreeRTOS/Source/CMSIS_RTOS/cmsis_os.c **** uint32_t osSemaphoreGetCount(osSemaphoreId semaphore_id)
1725:Middlewares/Third_Party/FreeRTOS/Source/CMSIS_RTOS/cmsis_os.c **** {
 3775              		.loc 1 1725 1 is_stmt 1 view -0
 3776              		.cfi_startproc
 3777              		@ args = 0, pretend = 0, frame = 0
 3778              		@ frame_needed = 0, uses_anonymous_args = 0
 3779              		.loc 1 1725 1 is_stmt 0 view .LVU934
 3780 0000 08B5     		push	{r3, lr}
 3781              	.LCFI85:
 3782              		.cfi_def_cfa_offset 8
 3783              		.cfi_offset 3, -8
 3784              		.cfi_offset 14, -4
1726:Middlewares/Third_Party/FreeRTOS/Source/CMSIS_RTOS/cmsis_os.c ****   return uxSemaphoreGetCount(semaphore_id);
 3785              		.loc 1 1726 3 is_stmt 1 view .LVU935
 3786              		.loc 1 1726 10 is_stmt 0 view .LVU936
 3787 0002 FFF7FEFF 		bl	uxQueueMessagesWaiting
 3788              	.LVL306:
1727:Middlewares/Third_Party/FreeRTOS/Source/CMSIS_RTOS/cmsis_os.c **** }
 3789              		.loc 1 1727 1 view .LVU937
 3790 0006 08BD     		pop	{r3, pc}
 3791              		.cfi_endproc
 3792              	.LFE162:
 3794              		.text
 3795              	.Letext0:
 3796              		.file 4 "/usr/lib/gcc/arm-none-eabi/9.2.1/include/stddef.h"
 3797              		.file 5 "/usr/include/newlib/sys/_types.h"
 3798              		.file 6 "/usr/include/newlib/sys/reent.h"
 3799              		.file 7 "/usr/include/newlib/sys/lock.h"
 3800              		.file 8 "/usr/lib/gcc/arm-none-eabi/9.2.1/include/stdint.h"
 3801              		.file 9 "Core/Inc/FreeRTOSConfig.h"
 3802              		.file 10 "Middlewares/Third_Party/FreeRTOS/Source/include/projdefs.h"
 3803              		.file 11 "Middlewares/Third_Party/FreeRTOS/Source/include/FreeRTOS.h"
 3804              		.file 12 "Middlewares/Third_Party/FreeRTOS/Source/include/task.h"
 3805              		.file 13 "Middlewares/Third_Party/FreeRTOS/Source/include/timers.h"
 3806              		.file 14 "Middlewares/Third_Party/FreeRTOS/Source/include/queue.h"
 3807              		.file 15 "Middlewares/Third_Party/FreeRTOS/Source/include/semphr.h"
 3808              		.file 16 "Middlewares/Third_Party/FreeRTOS/Source/CMSIS_RTOS/cmsis_os.h"
ARM GAS  /tmp/ccYrIPsY.s 			page 107


 3809              		.file 17 "Middlewares/Third_Party/FreeRTOS/Source/include/portable.h"
ARM GAS  /tmp/ccYrIPsY.s 			page 108


DEFINED SYMBOLS
                            *ABS*:0000000000000000 cmsis_os.c
     /tmp/ccYrIPsY.s:18     .text.makeFreeRtosPriority:0000000000000000 $t
     /tmp/ccYrIPsY.s:25     .text.makeFreeRtosPriority:0000000000000000 makeFreeRtosPriority
     /tmp/ccYrIPsY.s:57     .text.makeCmsisPriority:0000000000000000 $t
     /tmp/ccYrIPsY.s:63     .text.makeCmsisPriority:0000000000000000 makeCmsisPriority
     /tmp/ccYrIPsY.s:97     .text.inHandlerMode:0000000000000000 $t
     /tmp/ccYrIPsY.s:103    .text.inHandlerMode:0000000000000000 inHandlerMode
     /tmp/ccYrIPsY.s:138    .text.osKernelStart:0000000000000000 $t
     /tmp/ccYrIPsY.s:145    .text.osKernelStart:0000000000000000 osKernelStart
     /tmp/ccYrIPsY.s:167    .text.osKernelRunning:0000000000000000 $t
     /tmp/ccYrIPsY.s:174    .text.osKernelRunning:0000000000000000 osKernelRunning
     /tmp/ccYrIPsY.s:205    .text.osKernelSysTick:0000000000000000 $t
     /tmp/ccYrIPsY.s:212    .text.osKernelSysTick:0000000000000000 osKernelSysTick
     /tmp/ccYrIPsY.s:246    .text.osThreadCreate:0000000000000000 $t
     /tmp/ccYrIPsY.s:253    .text.osThreadCreate:0000000000000000 osThreadCreate
     /tmp/ccYrIPsY.s:358    .text.osThreadGetId:0000000000000000 $t
     /tmp/ccYrIPsY.s:365    .text.osThreadGetId:0000000000000000 osThreadGetId
     /tmp/ccYrIPsY.s:386    .text.osThreadTerminate:0000000000000000 $t
     /tmp/ccYrIPsY.s:393    .text.osThreadTerminate:0000000000000000 osThreadTerminate
     /tmp/ccYrIPsY.s:417    .text.osThreadYield:0000000000000000 $t
     /tmp/ccYrIPsY.s:424    .text.osThreadYield:0000000000000000 osThreadYield
     /tmp/ccYrIPsY.s:454    .text.osThreadYield:0000000000000014 $d
     /tmp/ccYrIPsY.s:459    .text.osThreadSetPriority:0000000000000000 $t
     /tmp/ccYrIPsY.s:466    .text.osThreadSetPriority:0000000000000000 osThreadSetPriority
     /tmp/ccYrIPsY.s:500    .text.osThreadGetPriority:0000000000000000 $t
     /tmp/ccYrIPsY.s:507    .text.osThreadGetPriority:0000000000000000 osThreadGetPriority
     /tmp/ccYrIPsY.s:551    .text.osDelay:0000000000000000 $t
     /tmp/ccYrIPsY.s:558    .text.osDelay:0000000000000000 osDelay
     /tmp/ccYrIPsY.s:594    .text.osDelay:000000000000001c $d
     /tmp/ccYrIPsY.s:599    .text.osTimerCreate:0000000000000000 $t
     /tmp/ccYrIPsY.s:606    .text.osTimerCreate:0000000000000000 osTimerCreate
     /tmp/ccYrIPsY.s:624    .text.osTimerStart:0000000000000000 $t
     /tmp/ccYrIPsY.s:631    .text.osTimerStart:0000000000000000 osTimerStart
     /tmp/ccYrIPsY.s:651    .text.osTimerStop:0000000000000000 $t
     /tmp/ccYrIPsY.s:658    .text.osTimerStop:0000000000000000 osTimerStop
     /tmp/ccYrIPsY.s:678    .text.osTimerDelete:0000000000000000 $t
     /tmp/ccYrIPsY.s:685    .text.osTimerDelete:0000000000000000 osTimerDelete
     /tmp/ccYrIPsY.s:705    .text.osSignalSet:0000000000000000 $t
     /tmp/ccYrIPsY.s:712    .text.osSignalSet:0000000000000000 osSignalSet
     /tmp/ccYrIPsY.s:814    .text.osSignalSet:0000000000000060 $d
     /tmp/ccYrIPsY.s:819    .text.osSignalWait:0000000000000000 $t
     /tmp/ccYrIPsY.s:826    .text.osSignalWait:0000000000000000 osSignalWait
     /tmp/ccYrIPsY.s:960    .text.osMutexCreate:0000000000000000 $t
     /tmp/ccYrIPsY.s:967    .text.osMutexCreate:0000000000000000 osMutexCreate
     /tmp/ccYrIPsY.s:1009   .text.osMutexWait:0000000000000000 $t
     /tmp/ccYrIPsY.s:1016   .text.osMutexWait:0000000000000000 osMutexWait
     /tmp/ccYrIPsY.s:1155   .text.osMutexWait:0000000000000078 $d
     /tmp/ccYrIPsY.s:1160   .text.osMutexRelease:0000000000000000 $t
     /tmp/ccYrIPsY.s:1167   .text.osMutexRelease:0000000000000000 osMutexRelease
     /tmp/ccYrIPsY.s:1267   .text.osMutexRelease:0000000000000058 $d
     /tmp/ccYrIPsY.s:1272   .text.osMutexDelete:0000000000000000 $t
     /tmp/ccYrIPsY.s:1279   .text.osMutexDelete:0000000000000000 osMutexDelete
     /tmp/ccYrIPsY.s:1318   .text.osSemaphoreCreate:0000000000000000 $t
     /tmp/ccYrIPsY.s:1325   .text.osSemaphoreCreate:0000000000000000 osSemaphoreCreate
     /tmp/ccYrIPsY.s:1417   .text.osSemaphoreWait:0000000000000000 $t
     /tmp/ccYrIPsY.s:1424   .text.osSemaphoreWait:0000000000000000 osSemaphoreWait
ARM GAS  /tmp/ccYrIPsY.s 			page 109


     /tmp/ccYrIPsY.s:1558   .text.osSemaphoreWait:0000000000000078 $d
     /tmp/ccYrIPsY.s:1563   .text.osSemaphoreRelease:0000000000000000 $t
     /tmp/ccYrIPsY.s:1570   .text.osSemaphoreRelease:0000000000000000 osSemaphoreRelease
     /tmp/ccYrIPsY.s:1670   .text.osSemaphoreRelease:0000000000000058 $d
     /tmp/ccYrIPsY.s:1675   .text.osSemaphoreDelete:0000000000000000 $t
     /tmp/ccYrIPsY.s:1682   .text.osSemaphoreDelete:0000000000000000 osSemaphoreDelete
     /tmp/ccYrIPsY.s:1721   .text.osPoolCreate:0000000000000000 $t
     /tmp/ccYrIPsY.s:1728   .text.osPoolCreate:0000000000000000 osPoolCreate
     /tmp/ccYrIPsY.s:1864   .text.osPoolAlloc:0000000000000000 $t
     /tmp/ccYrIPsY.s:1871   .text.osPoolAlloc:0000000000000000 osPoolAlloc
     /tmp/ccYrIPsY.s:2030   .text.osPoolCAlloc:0000000000000000 $t
     /tmp/ccYrIPsY.s:2037   .text.osPoolCAlloc:0000000000000000 osPoolCAlloc
     /tmp/ccYrIPsY.s:2068   .text.osPoolFree:0000000000000000 $t
     /tmp/ccYrIPsY.s:2075   .text.osPoolFree:0000000000000000 osPoolFree
     /tmp/ccYrIPsY.s:2166   .text.osMessageCreate:0000000000000000 $t
     /tmp/ccYrIPsY.s:2173   .text.osMessageCreate:0000000000000000 osMessageCreate
     /tmp/ccYrIPsY.s:2235   .text.osMessagePut:0000000000000000 $t
     /tmp/ccYrIPsY.s:2242   .text.osMessagePut:0000000000000000 osMessagePut
     /tmp/ccYrIPsY.s:2358   .text.osMessagePut:000000000000006c $d
     /tmp/ccYrIPsY.s:2364   .text.osMessageGet:0000000000000000 $t
     /tmp/ccYrIPsY.s:2371   .text.osMessageGet:0000000000000000 osMessageGet
     /tmp/ccYrIPsY.s:2549   .text.osMessageGet:00000000000000a0 $d
     /tmp/ccYrIPsY.s:2554   .text.osMailCreate:0000000000000000 $t
     /tmp/ccYrIPsY.s:2561   .text.osMailCreate:0000000000000000 osMailCreate
     /tmp/ccYrIPsY.s:2686   .text.osMailAlloc:0000000000000000 $t
     /tmp/ccYrIPsY.s:2693   .text.osMailAlloc:0000000000000000 osMailAlloc
     /tmp/ccYrIPsY.s:2726   .text.osMailCAlloc:0000000000000000 $t
     /tmp/ccYrIPsY.s:2733   .text.osMailCAlloc:0000000000000000 osMailCAlloc
     /tmp/ccYrIPsY.s:2790   .text.osMailPut:0000000000000000 $t
     /tmp/ccYrIPsY.s:2797   .text.osMailPut:0000000000000000 osMailPut
     /tmp/ccYrIPsY.s:2909   .text.osMailPut:0000000000000064 $d
     /tmp/ccYrIPsY.s:2914   .text.osMailGet:0000000000000000 $t
     /tmp/ccYrIPsY.s:2921   .text.osMailGet:0000000000000000 osMailGet
     /tmp/ccYrIPsY.s:3095   .text.osMailGet:000000000000009c $d
     /tmp/ccYrIPsY.s:3100   .text.osMailFree:0000000000000000 $t
     /tmp/ccYrIPsY.s:3107   .text.osMailFree:0000000000000000 osMailFree
     /tmp/ccYrIPsY.s:3147   .text.osSystickHandler:0000000000000000 $t
     /tmp/ccYrIPsY.s:3154   .text.osSystickHandler:0000000000000000 osSystickHandler
     /tmp/ccYrIPsY.s:3185   .text.osThreadSuspend:0000000000000000 $t
     /tmp/ccYrIPsY.s:3192   .text.osThreadSuspend:0000000000000000 osThreadSuspend
     /tmp/ccYrIPsY.s:3216   .text.osThreadResume:0000000000000000 $t
     /tmp/ccYrIPsY.s:3223   .text.osThreadResume:0000000000000000 osThreadResume
     /tmp/ccYrIPsY.s:3283   .text.osThreadResume:0000000000000030 $d
     /tmp/ccYrIPsY.s:3288   .text.osThreadSuspendAll:0000000000000000 $t
     /tmp/ccYrIPsY.s:3295   .text.osThreadSuspendAll:0000000000000000 osThreadSuspendAll
     /tmp/ccYrIPsY.s:3317   .text.osThreadResumeAll:0000000000000000 $t
     /tmp/ccYrIPsY.s:3324   .text.osThreadResumeAll:0000000000000000 osThreadResumeAll
     /tmp/ccYrIPsY.s:3355   .text.osDelayUntil:0000000000000000 $t
     /tmp/ccYrIPsY.s:3362   .text.osDelayUntil:0000000000000000 osDelayUntil
     /tmp/ccYrIPsY.s:3382   .text.osAbortDelay:0000000000000000 $t
     /tmp/ccYrIPsY.s:3389   .text.osAbortDelay:0000000000000000 osAbortDelay
     /tmp/ccYrIPsY.s:3408   .text.osThreadList:0000000000000000 $t
     /tmp/ccYrIPsY.s:3415   .text.osThreadList:0000000000000000 osThreadList
     /tmp/ccYrIPsY.s:3433   .text.osMessagePeek:0000000000000000 $t
     /tmp/ccYrIPsY.s:3440   .text.osMessagePeek:0000000000000000 osMessagePeek
     /tmp/ccYrIPsY.s:3562   .text.osMessagePeek:0000000000000060 $d
     /tmp/ccYrIPsY.s:3567   .text.osMessageWaiting:0000000000000000 $t
ARM GAS  /tmp/ccYrIPsY.s 			page 110


     /tmp/ccYrIPsY.s:3574   .text.osMessageWaiting:0000000000000000 osMessageWaiting
     /tmp/ccYrIPsY.s:3614   .text.osMessageAvailableSpace:0000000000000000 $t
     /tmp/ccYrIPsY.s:3621   .text.osMessageAvailableSpace:0000000000000000 osMessageAvailableSpace
     /tmp/ccYrIPsY.s:3644   .text.osMessageDelete:0000000000000000 $t
     /tmp/ccYrIPsY.s:3651   .text.osMessageDelete:0000000000000000 osMessageDelete
     /tmp/ccYrIPsY.s:3690   .text.osRecursiveMutexCreate:0000000000000000 $t
     /tmp/ccYrIPsY.s:3697   .text.osRecursiveMutexCreate:0000000000000000 osRecursiveMutexCreate
     /tmp/ccYrIPsY.s:3715   .text.osRecursiveMutexRelease:0000000000000000 $t
     /tmp/ccYrIPsY.s:3722   .text.osRecursiveMutexRelease:0000000000000000 osRecursiveMutexRelease
     /tmp/ccYrIPsY.s:3740   .text.osRecursiveMutexWait:0000000000000000 $t
     /tmp/ccYrIPsY.s:3747   .text.osRecursiveMutexWait:0000000000000000 osRecursiveMutexWait
     /tmp/ccYrIPsY.s:3765   .text.osSemaphoreGetCount:0000000000000000 $t
     /tmp/ccYrIPsY.s:3772   .text.osSemaphoreGetCount:0000000000000000 osSemaphoreGetCount

UNDEFINED SYMBOLS
vTaskStartScheduler
xTaskGetSchedulerState
xTaskGetTickCountFromISR
xTaskGetTickCount
xTaskCreateStatic
xTaskCreate
xTaskGetCurrentTaskHandle
vTaskDelete
vTaskPrioritySet
uxTaskPriorityGetFromISR
uxTaskPriorityGet
vTaskDelay
xTaskGenericNotifyFromISR
xTaskGenericNotify
xTaskNotifyWait
xQueueCreateMutexStatic
xQueueCreateMutex
xQueueReceiveFromISR
xQueueSemaphoreTake
xQueueGiveFromISR
xQueueGenericSend
vQueueDelete
xQueueGenericCreateStatic
xQueueGenericCreate
pvPortMalloc
vPortFree
vPortEnterCritical
vPortExitCritical
xQueueGenericSendFromISR
xQueueReceive
xPortSysTickHandler
vTaskSuspend
xTaskResumeFromISR
vTaskResume
vTaskSuspendAll
xTaskResumeAll
xQueuePeek
uxQueueMessagesWaitingFromISR
uxQueueMessagesWaiting
uxQueueSpacesAvailable
